(lp0
(dp1
S'.facebook.com'
p2
(dp3
S'/'
p4
(dp5
S'csm'
p6
(icookielib
Cookie
p7
(dp8
S'comment'
p9
NsS'domain'
p10
S'.facebook.com'
p11
sS'name'
p12
g6
sS'domain_initial_dot'
p13
I01
sS'expires'
p14
NsS'value'
p15
S'2'
p16
sS'domain_specified'
p17
I01
sS'_rest'
p18
(dp19
sS'version'
p20
I0
sS'port_specified'
p21
I00
sS'rfc2109'
p22
I00
sS'discard'
p23
I01
sS'path_specified'
p24
I01
sS'path'
p25
g4
sS'port'
p26
NsS'comment_url'
p27
NsS'secure'
p28
I00
sbsS'c_user'
p29
(icookielib
Cookie
p30
(dp31
g9
Nsg10
S'.facebook.com'
p32
sg12
g29
sg13
I01
sg14
Nsg15
S'100004928176655'
p33
sg17
I01
sg18
(dp34
sg20
I0
sg21
I00
sg22
I00
sg23
I01
sg24
I01
sg25
g4
sg26
Nsg27
Nsg28
I01
sbsS'fr'
p35
(icookielib
Cookie
p36
(dp37
g9
Nsg10
S'.facebook.com'
p38
sg12
g35
sg13
I01
sg14
I1403988219
sg15
S'038fjqIDtNTIAS6eE.AWW8pV1JkLhkzBhPUH-M5_6ut9U.BTh5v7.c8.AAA.AWVj_m2J'
p39
sg17
I01
sg18
(dp40
S'httponly'
p41
Nssg20
I0
sg21
I00
sg22
I00
sg23
I00
sg24
I01
sg25
g4
sg26
Nsg27
Nsg28
I00
sbsS'datr'
p42
(icookielib
Cookie
p43
(dp44
g9
Nsg10
S'.facebook.com'
p45
sg12
S'datr'
p46
sg13
I01
sg14
I1464468219
sg15
S'-puHUyTS2qrUsjzGnEHCj_RA'
p47
sg17
I01
sg18
(dp48
S'httponly'
p49
Nssg20
I0
sg21
I00
sg22
I00
sg23
I00
sg24
I01
sg25
g4
sg26
Nsg27
Nsg28
I00
sbsS's'
p50
(icookielib
Cookie
p51
(dp52
g9
Nsg10
S'.facebook.com'
p53
sg12
g50
sg13
I01
sg14
Nsg15
S'Aa40UhCn32AuuGOM.BTh5v7'
p54
sg17
I01
sg18
(dp55
S'httponly'
p56
Nssg20
I0
sg21
I00
sg22
I00
sg23
I01
sg24
I01
sg25
g4
sg26
Nsg27
Nsg28
I01
sbsS'lu'
p57
(icookielib
Cookie
p58
(dp59
g9
Nsg10
S'.facebook.com'
p60
sg12
g57
sg13
I01
sg14
I1464468219
sg15
S'QACo6BSZcq73KWcPCFnQjWgg'
p61
sg17
I01
sg18
(dp62
S'httponly'
p63
Nssg20
I0
sg21
I00
sg22
I00
sg23
I00
sg24
I01
sg25
g4
sg26
Nsg27
Nsg28
I01
sbsS'xs'
p64
(icookielib
Cookie
p65
(dp66
g9
Nsg10
S'.facebook.com'
p67
sg12
g64
sg13
I01
sg14
Nsg15
S'233%3A-aJEhh6ZpYhlAA%3A2%3A1401396219%3A12097'
p68
sg17
I01
sg18
(dp69
S'httponly'
p70
Nssg20
I0
sg21
I00
sg22
I00
sg23
I01
sg24
I01
sg25
g4
sg26
Nsg27
Nsg28
I01
sbsssa(dp71
S'.facebook.com'
p72
(dp73
g4
(dp74
S'csm'
p75
(icookielib
Cookie
p76
(dp77
g9
Nsg10
S'.facebook.com'
p78
sg12
g75
sg13
I01
sg14
Nsg15
g16
sg17
I01
sg18
(dp79
sg20
I0
sg21
I00
sg22
I00
sg23
I01
sg24
I01
sg25
g4
sg26
Nsg27
Nsg28
I00
sbsS'c_user'
p80
(icookielib
Cookie
p81
(dp82
g9
Nsg10
S'.facebook.com'
p83
sg12
g80
sg13
I01
sg14
Nsg15
S'100005461576711'
p84
sg17
I01
sg18
(dp85
sg20
I0
sg21
I00
sg22
I00
sg23
I01
sg24
I01
sg25
g4
sg26
Nsg27
Nsg28
I01
sbsS'fr'
p86
(icookielib
Cookie
p87
(dp88
g9
Nsg10
S'.facebook.com'
p89
sg12
g86
sg13
I01
sg14
I1403988222
sg15
S'0Ks9wMN2DQQwTNj6M.AWVstuBd2cdX_HWbcdY6v-mAe54.BTh5v-.Fy.AAA.AWUbqsFO'
p90
sg17
I01
sg18
(dp91
S'httponly'
p92
Nssg20
I0
sg21
I00
sg22
I00
sg23
I00
sg24
I01
sg25
g4
sg26
Nsg27
Nsg28
I00
sbsS'datr'
p93
(icookielib
Cookie
p94
(dp95
g9
Nsg10
S'.facebook.com'
p96
sg12
S'datr'
p97
sg13
I01
sg14
I1464468222
sg15
S'_ZuHU3qSDaiROs0FNnyBEe54'
p98
sg17
I01
sg18
(dp99
S'httponly'
p100
Nssg20
I0
sg21
I00
sg22
I00
sg23
I00
sg24
I01
sg25
g4
sg26
Nsg27
Nsg28
I00
sbsg50
(icookielib
Cookie
p101
(dp102
g9
Nsg10
S'.facebook.com'
p103
sg12
g50
sg13
I01
sg14
Nsg15
S'Aa5UJn4zVytZf87R.BTh5v-'
p104
sg17
I01
sg18
(dp105
S'httponly'
p106
Nssg20
I0
sg21
I00
sg22
I00
sg23
I01
sg24
I01
sg25
g4
sg26
Nsg27
Nsg28
I01
sbsS'lu'
p107
(icookielib
Cookie
p108
(dp109
g9
Nsg10
S'.facebook.com'
p110
sg12
g107
sg13
I01
sg14
I1464468222
sg15
S'QAT_qyVkmDdrb05OaRRreUDw'
p111
sg17
I01
sg18
(dp112
S'httponly'
p113
Nssg20
I0
sg21
I00
sg22
I00
sg23
I00
sg24
I01
sg25
g4
sg26
Nsg27
Nsg28
I01
sbsS'xs'
p114
(icookielib
Cookie
p115
(dp116
g9
Nsg10
S'.facebook.com'
p117
sg12
g114
sg13
I01
sg14
Nsg15
S'219%3AsslhMtRKBcVQAg%3A2%3A1401396222%3A10721'
p118
sg17
I01
sg18
(dp119
S'httponly'
p120
Nssg20
I0
sg21
I00
sg22
I00
sg23
I01
sg24
I01
sg25
g4
sg26
Nsg27
Nsg28
I01
sbsssa(dp121
S'.facebook.com'
p122
(dp123
g4
(dp124
S'csm'
p125
(icookielib
Cookie
p126
(dp127
g9
Nsg10
S'.facebook.com'
p128
sg12
g125
sg13
I01
sg14
Nsg15
g16
sg17
I01
sg18
(dp129
sg20
I0
sg21
I00
sg22
I00
sg23
I01
sg24
I01
sg25
g4
sg26
Nsg27
Nsg28
I00
sbsS'c_user'
p130
(icookielib
Cookie
p131
(dp132
g9
Nsg10
S'.facebook.com'
p133
sg12
g130
sg13
I01
sg14
Nsg15
S'100004705816711'
p134
sg17
I01
sg18
(dp135
sg20
I0
sg21
I00
sg22
I00
sg23
I01
sg24
I01
sg25
g4
sg26
Nsg27
Nsg28
I01
sbsS'fr'
p136
(icookielib
Cookie
p137
(dp138
g9
Nsg10
S'.facebook.com'
p139
sg12
g136
sg13
I01
sg14
I1403988225
sg15
S'0maYDT9dqJ4tfNK3j.AWWqp9anEJ1mhQH9VvEh_qDVZ38.BTh5wB.7W.AAA.AWW3_1b_'
p140
sg17
I01
sg18
(dp141
S'httponly'
p142
Nssg20
I0
sg21
I00
sg22
I00
sg23
I00
sg24
I01
sg25
g4
sg26
Nsg27
Nsg28
I00
sbsS'datr'
p143
(icookielib
Cookie
p144
(dp145
g9
Nsg10
S'.facebook.com'
p146
sg12
S'datr'
p147
sg13
I01
sg14
I1464468225
sg15
S'AJyHU9ZN5-kchy06kzlKbsOy'
p148
sg17
I01
sg18
(dp149
S'httponly'
p150
Nssg20
I0
sg21
I00
sg22
I00
sg23
I00
sg24
I01
sg25
g4
sg26
Nsg27
Nsg28
I00
sbsg50
(icookielib
Cookie
p151
(dp152
g9
Nsg10
S'.facebook.com'
p153
sg12
g50
sg13
I01
sg14
Nsg15
S'Aa4pjpQbiHYiS9kG.BTh5wB'
p154
sg17
I01
sg18
(dp155
S'httponly'
p156
Nssg20
I0
sg21
I00
sg22
I00
sg23
I01
sg24
I01
sg25
g4
sg26
Nsg27
Nsg28
I01
sbsS'lu'
p157
(icookielib
Cookie
p158
(dp159
g9
Nsg10
S'.facebook.com'
p160
sg12
g157
sg13
I01
sg14
I1464468225
sg15
S'QA_UC9h5AYKZNBjp31kTJZzA'
p161
sg17
I01
sg18
(dp162
S'httponly'
p163
Nssg20
I0
sg21
I00
sg22
I00
sg23
I00
sg24
I01
sg25
g4
sg26
Nsg27
Nsg28
I01
sbsS'xs'
p164
(icookielib
Cookie
p165
(dp166
g9
Nsg10
S'.facebook.com'
p167
sg12
g164
sg13
I01
sg14
Nsg15
S'51%3ARFzMduGYT3AInA%3A2%3A1401396225%3A2152'
p168
sg17
I01
sg18
(dp169
S'httponly'
p170
Nssg20
I0
sg21
I00
sg22
I00
sg23
I01
sg24
I01
sg25
g4
sg26
Nsg27
Nsg28
I01
sbsssa.