(lp0
(dp1
S'.facebook.com'
p2
(dp3
S'/'
p4
(dp5
S'csm'
p6
(icookielib
Cookie
p7
(dp8
S'comment'
p9
NsS'domain'
p10
S'.facebook.com'
p11
sS'name'
p12
g6
sS'domain_initial_dot'
p13
I01
sS'expires'
p14
NsS'value'
p15
S'2'
p16
sS'domain_specified'
p17
I01
sS'_rest'
p18
(dp19
sS'version'
p20
I0
sS'port_specified'
p21
I00
sS'rfc2109'
p22
I00
sS'discard'
p23
I01
sS'path_specified'
p24
I01
sS'path'
p25
g4
sS'port'
p26
NsS'comment_url'
p27
NsS'secure'
p28
I00
sbsS'c_user'
p29
(icookielib
Cookie
p30
(dp31
g9
Nsg10
S'.facebook.com'
p32
sg12
g29
sg13
I01
sg14
Nsg15
S'100008266549243'
p33
sg17
I01
sg18
(dp34
sg20
I0
sg21
I00
sg22
I00
sg23
I01
sg24
I01
sg25
g4
sg26
Nsg27
Nsg28
I01
sbsS'fr'
p35
(icookielib
Cookie
p36
(dp37
g9
Nsg10
S'.facebook.com'
p38
sg12
g35
sg13
I01
sg14
I1403926410
sg15
S'0TEeZ9Y4fqSvp9IaO.AWU8fCqsquDDeb-0u2d0LvuGFhE.BThqqK.rG.AAA.AWUwhmb6'
p39
sg17
I01
sg18
(dp40
S'httponly'
p41
Nssg20
I0
sg21
I00
sg22
I00
sg23
I00
sg24
I01
sg25
g4
sg26
Nsg27
Nsg28
I00
sbsS'datr'
p42
(icookielib
Cookie
p43
(dp44
g9
Nsg10
S'.facebook.com'
p45
sg12
S'datr'
p46
sg13
I01
sg14
I1464406409
sg15
S'iKqGU8Y7skE66U5du3-m7g4A'
p47
sg17
I01
sg18
(dp48
S'httponly'
p49
Nssg20
I0
sg21
I00
sg22
I00
sg23
I00
sg24
I01
sg25
g4
sg26
Nsg27
Nsg28
I00
sbsS's'
p50
(icookielib
Cookie
p51
(dp52
g9
Nsg10
S'.facebook.com'
p53
sg12
g50
sg13
I01
sg14
Nsg15
S'Aa4YjP-fOzdAoOPr.BThqqK'
p54
sg17
I01
sg18
(dp55
S'httponly'
p56
Nssg20
I0
sg21
I00
sg22
I00
sg23
I01
sg24
I01
sg25
g4
sg26
Nsg27
Nsg28
I01
sbsS'lu'
p57
(icookielib
Cookie
p58
(dp59
g9
Nsg10
S'.facebook.com'
p60
sg12
g57
sg13
I01
sg14
I1464406410
sg15
S'QAGNrn23XDLGbL6_qf3KjuKA'
p61
sg17
I01
sg18
(dp62
S'httponly'
p63
Nssg20
I0
sg21
I00
sg22
I00
sg23
I00
sg24
I01
sg25
g4
sg26
Nsg27
Nsg28
I01
sbsS'xs'
p64
(icookielib
Cookie
p65
(dp66
g9
Nsg10
S'.facebook.com'
p67
sg12
g64
sg13
I01
sg14
Nsg15
S'85%3AJ1QukCMYviEg5A%3A2%3A1401334410%3A3669'
p68
sg17
I01
sg18
(dp69
S'httponly'
p70
Nssg20
I0
sg21
I00
sg22
I00
sg23
I01
sg24
I01
sg25
g4
sg26
Nsg27
Nsg28
I01
sbsssa(dp71
S'.facebook.com'
p72
(dp73
g4
(dp74
S'csm'
p75
(icookielib
Cookie
p76
(dp77
g9
Nsg10
S'.facebook.com'
p78
sg12
g75
sg13
I01
sg14
Nsg15
g16
sg17
I01
sg18
(dp79
sg20
I0
sg21
I00
sg22
I00
sg23
I01
sg24
I01
sg25
g4
sg26
Nsg27
Nsg28
I00
sbsS'c_user'
p80
(icookielib
Cookie
p81
(dp82
g9
Nsg10
S'.facebook.com'
p83
sg12
g80
sg13
I01
sg14
Nsg15
S'100008281232738'
p84
sg17
I01
sg18
(dp85
sg20
I0
sg21
I00
sg22
I00
sg23
I01
sg24
I01
sg25
g4
sg26
Nsg27
Nsg28
I01
sbsS'fr'
p86
(icookielib
Cookie
p87
(dp88
g9
Nsg10
S'.facebook.com'
p89
sg12
g86
sg13
I01
sg14
I1403926412
sg15
S'0HpXB8f4rKxexPGNC.AWWxCTr4vOfMGvNbRznLbkmcZJE.BThqqM.QH.AAA.AWXQSNbM'
p90
sg17
I01
sg18
(dp91
S'httponly'
p92
Nssg20
I0
sg21
I00
sg22
I00
sg23
I00
sg24
I01
sg25
g4
sg26
Nsg27
Nsg28
I00
sbsS'datr'
p93
(icookielib
Cookie
p94
(dp95
g9
Nsg10
S'.facebook.com'
p96
sg12
S'datr'
p97
sg13
I01
sg14
I1464406412
sg15
S'i6qGUzacs7ue5RlcnI1vvtmJ'
p98
sg17
I01
sg18
(dp99
S'httponly'
p100
Nssg20
I0
sg21
I00
sg22
I00
sg23
I00
sg24
I01
sg25
g4
sg26
Nsg27
Nsg28
I00
sbsg50
(icookielib
Cookie
p101
(dp102
g9
Nsg10
S'.facebook.com'
p103
sg12
g50
sg13
I01
sg14
Nsg15
S'Aa794rJbJA_9cEOO.BThqqM'
p104
sg17
I01
sg18
(dp105
S'httponly'
p106
Nssg20
I0
sg21
I00
sg22
I00
sg23
I01
sg24
I01
sg25
g4
sg26
Nsg27
Nsg28
I01
sbsS'lu'
p107
(icookielib
Cookie
p108
(dp109
g9
Nsg10
S'.facebook.com'
p110
sg12
g107
sg13
I01
sg14
I1464406412
sg15
S'QABVr-DTn6E-eev_eLC2p84A'
p111
sg17
I01
sg18
(dp112
S'httponly'
p113
Nssg20
I0
sg21
I00
sg22
I00
sg23
I00
sg24
I01
sg25
g4
sg26
Nsg27
Nsg28
I01
sbsS'xs'
p114
(icookielib
Cookie
p115
(dp116
g9
Nsg10
S'.facebook.com'
p117
sg12
g114
sg13
I01
sg14
Nsg15
S'78%3Ab_tlErszFTzVWg%3A2%3A1401334412%3A17303'
p118
sg17
I01
sg18
(dp119
S'httponly'
p120
Nssg20
I0
sg21
I00
sg22
I00
sg23
I01
sg24
I01
sg25
g4
sg26
Nsg27
Nsg28
I01
sbsssa(dp121
S'.facebook.com'
p122
(dp123
S'/'
p124
(dp125
S'csm'
p126
(icookielib
Cookie
p127
(dp128
g9
Nsg10
S'.facebook.com'
p129
sg12
g126
sg13
I01
sg14
Nsg15
S'2'
p130
sg17
I01
sg18
(dp131
sg20
I0
sg21
I00
sg22
I00
sg23
I01
sg24
I01
sg25
g124
sg26
Nsg27
Nsg28
I00
sbsS'c_user'
p132
(icookielib
Cookie
p133
(dp134
g9
Nsg10
S'.facebook.com'
p135
sg12
g132
sg13
I01
sg14
Nsg15
S'100004638256516'
p136
sg17
I01
sg18
(dp137
sg20
I0
sg21
I00
sg22
I00
sg23
I01
sg24
I01
sg25
g124
sg26
Nsg27
Nsg28
I01
sbsS'fr'
p138
(icookielib
Cookie
p139
(dp140
g9
Nsg10
S'.facebook.com'
p141
sg12
g138
sg13
I01
sg14
I1403927027
sg15
S'0Ugzv2p1wIxCSX2nN.AWUTDiz6O6ibF_Rb7_eDHCNimI8.BThqzz.4l.AAA.AWXJ4vIZ'
p142
sg17
I01
sg18
(dp143
S'httponly'
p144
Nssg20
I0
sg21
I00
sg22
I00
sg23
I00
sg24
I01
sg25
g124
sg26
Nsg27
Nsg28
I00
sbsS'datr'
p145
(icookielib
Cookie
p146
(dp147
g9
Nsg10
S'.facebook.com'
p148
sg12
S'datr'
p149
sg13
I01
sg14
I1464407026
sg15
S'8ayGUwqqpZ6lJ4elW-owCFIb'
p150
sg17
I01
sg18
(dp151
S'httponly'
p152
Nssg20
I0
sg21
I00
sg22
I00
sg23
I00
sg24
I01
sg25
g124
sg26
Nsg27
Nsg28
I00
sbsS's'
p153
(icookielib
Cookie
p154
(dp155
g9
Nsg10
S'.facebook.com'
p156
sg12
g153
sg13
I01
sg14
Nsg15
S'Aa41mp1ualRt7B9Z.BThqzy'
p157
sg17
I01
sg18
(dp158
S'httponly'
p159
Nssg20
I0
sg21
I00
sg22
I00
sg23
I01
sg24
I01
sg25
g124
sg26
Nsg27
Nsg28
I01
sbsS'lu'
p160
(icookielib
Cookie
p161
(dp162
g9
Nsg10
S'.facebook.com'
p163
sg12
g160
sg13
I01
sg14
I1464407027
sg15
S'QAfIE4pjDShv2Lli5DIc9eMw'
p164
sg17
I01
sg18
(dp165
S'httponly'
p166
Nssg20
I0
sg21
I00
sg22
I00
sg23
I00
sg24
I01
sg25
g124
sg26
Nsg27
Nsg28
I01
sbsS'xs'
p167
(icookielib
Cookie
p168
(dp169
g9
Nsg10
S'.facebook.com'
p170
sg12
g167
sg13
I01
sg14
Nsg15
S'171%3A6qyNi4h4br15wQ%3A2%3A1401335026%3A6345'
p171
sg17
I01
sg18
(dp172
S'httponly'
p173
Nssg20
I0
sg21
I00
sg22
I00
sg23
I01
sg24
I01
sg25
g124
sg26
Nsg27
Nsg28
I01
sbsssa(dp174
S'.facebook.com'
p175
(dp176
g124
(dp177
S'csm'
p178
(icookielib
Cookie
p179
(dp180
g9
Nsg10
S'.facebook.com'
p181
sg12
g178
sg13
I01
sg14
Nsg15
g130
sg17
I01
sg18
(dp182
sg20
I0
sg21
I00
sg22
I00
sg23
I01
sg24
I01
sg25
g124
sg26
Nsg27
Nsg28
I00
sbsS'c_user'
p183
(icookielib
Cookie
p184
(dp185
g9
Nsg10
S'.facebook.com'
p186
sg12
g183
sg13
I01
sg14
Nsg15
S'100004813143628'
p187
sg17
I01
sg18
(dp188
sg20
I0
sg21
I00
sg22
I00
sg23
I01
sg24
I01
sg25
g124
sg26
Nsg27
Nsg28
I01
sbsS'fr'
p189
(icookielib
Cookie
p190
(dp191
g9
Nsg10
S'.facebook.com'
p192
sg12
g189
sg13
I01
sg14
I1403927030
sg15
S'07GP7oHIhoEj1KJWQ.AWVWGMP12kme1RfjoVthUGHvV2A.BThqz2.qU.AAA.AWV4wBrO'
p193
sg17
I01
sg18
(dp194
S'httponly'
p195
Nssg20
I0
sg21
I00
sg22
I00
sg23
I00
sg24
I01
sg25
g124
sg26
Nsg27
Nsg28
I00
sbsS'datr'
p196
(icookielib
Cookie
p197
(dp198
g9
Nsg10
S'.facebook.com'
p199
sg12
S'datr'
p200
sg13
I01
sg14
I1464407029
sg15
S'9KyGU5DN5V0T1hEuORdH4jun'
p201
sg17
I01
sg18
(dp202
S'httponly'
p203
Nssg20
I0
sg21
I00
sg22
I00
sg23
I00
sg24
I01
sg25
g124
sg26
Nsg27
Nsg28
I00
sbsg153
(icookielib
Cookie
p204
(dp205
g9
Nsg10
S'.facebook.com'
p206
sg12
g153
sg13
I01
sg14
Nsg15
S'Aa6n2DPN7d14UXIf.BThqz2'
p207
sg17
I01
sg18
(dp208
S'httponly'
p209
Nssg20
I0
sg21
I00
sg22
I00
sg23
I01
sg24
I01
sg25
g124
sg26
Nsg27
Nsg28
I01
sbsS'lu'
p210
(icookielib
Cookie
p211
(dp212
g9
Nsg10
S'.facebook.com'
p213
sg12
g210
sg13
I01
sg14
I1464407030
sg15
S'QAOp-ravRHpOF60SfaN_K2tg'
p214
sg17
I01
sg18
(dp215
S'httponly'
p216
Nssg20
I0
sg21
I00
sg22
I00
sg23
I00
sg24
I01
sg25
g124
sg26
Nsg27
Nsg28
I01
sbsS'xs'
p217
(icookielib
Cookie
p218
(dp219
g9
Nsg10
S'.facebook.com'
p220
sg12
g217
sg13
I01
sg14
Nsg15
S'34%3AlD6W9NrXyxODZQ%3A2%3A1401335030%3A11310'
p221
sg17
I01
sg18
(dp222
S'httponly'
p223
Nssg20
I0
sg21
I00
sg22
I00
sg23
I01
sg24
I01
sg25
g124
sg26
Nsg27
Nsg28
I01
sbsssa(dp224
S'.facebook.com'
p225
(dp226
g124
(dp227
S'csm'
p228
(icookielib
Cookie
p229
(dp230
g9
Nsg10
S'.facebook.com'
p231
sg12
g228
sg13
I01
sg14
Nsg15
g130
sg17
I01
sg18
(dp232
sg20
I0
sg21
I00
sg22
I00
sg23
I01
sg24
I01
sg25
g124
sg26
Nsg27
Nsg28
I00
sbsS'c_user'
p233
(icookielib
Cookie
p234
(dp235
g9
Nsg10
S'.facebook.com'
p236
sg12
g233
sg13
I01
sg14
Nsg15
S'100004170376513'
p237
sg17
I01
sg18
(dp238
sg20
I0
sg21
I00
sg22
I00
sg23
I01
sg24
I01
sg25
g124
sg26
Nsg27
Nsg28
I01
sbsS'fr'
p239
(icookielib
Cookie
p240
(dp241
g9
Nsg10
S'.facebook.com'
p242
sg12
g239
sg13
I01
sg14
I1403927033
sg15
S'0TDcNCiNbv7g7nHlO.AWVF9A0_veYWpscJlwFwQwpmWW0.BThqz5.EF.AAA.AWWEZGc0'
p243
sg17
I01
sg18
(dp244
S'httponly'
p245
Nssg20
I0
sg21
I00
sg22
I00
sg23
I00
sg24
I01
sg25
g124
sg26
Nsg27
Nsg28
I00
sbsS'datr'
p246
(icookielib
Cookie
p247
(dp248
g9
Nsg10
S'.facebook.com'
p249
sg12
S'datr'
p250
sg13
I01
sg14
I1464407032
sg15
S'96yGU5UOSNiIVva3P6kB6w_T'
p251
sg17
I01
sg18
(dp252
S'httponly'
p253
Nssg20
I0
sg21
I00
sg22
I00
sg23
I00
sg24
I01
sg25
g124
sg26
Nsg27
Nsg28
I00
sbsg153
(icookielib
Cookie
p254
(dp255
g9
Nsg10
S'.facebook.com'
p256
sg12
g153
sg13
I01
sg14
Nsg15
S'Aa7T9b8DSICJ6gNG.BThqz4'
p257
sg17
I01
sg18
(dp258
S'httponly'
p259
Nssg20
I0
sg21
I00
sg22
I00
sg23
I01
sg24
I01
sg25
g124
sg26
Nsg27
Nsg28
I01
sbsS'lu'
p260
(icookielib
Cookie
p261
(dp262
g9
Nsg10
S'.facebook.com'
p263
sg12
g260
sg13
I01
sg14
I1464407033
sg15
S'QAQuPs_2zR_DYzBw9_Trq9uA'
p264
sg17
I01
sg18
(dp265
S'httponly'
p266
Nssg20
I0
sg21
I00
sg22
I00
sg23
I00
sg24
I01
sg25
g124
sg26
Nsg27
Nsg28
I01
sbsS'xs'
p267
(icookielib
Cookie
p268
(dp269
g9
Nsg10
S'.facebook.com'
p270
sg12
g267
sg13
I01
sg14
Nsg15
S'194%3AlvHRPIJUPvO0Dw%3A2%3A1401335032%3A9718'
p271
sg17
I01
sg18
(dp272
S'httponly'
p273
Nssg20
I0
sg21
I00
sg22
I00
sg23
I01
sg24
I01
sg25
g124
sg26
Nsg27
Nsg28
I01
sbsssa(dp274
S'.facebook.com'
p275
(dp276
g124
(dp277
S'csm'
p278
(icookielib
Cookie
p279
(dp280
g9
Nsg10
S'.facebook.com'
p281
sg12
g278
sg13
I01
sg14
Nsg15
g130
sg17
I01
sg18
(dp282
sg20
I0
sg21
I00
sg22
I00
sg23
I01
sg24
I01
sg25
g124
sg26
Nsg27
Nsg28
I00
sbsS'c_user'
p283
(icookielib
Cookie
p284
(dp285
g9
Nsg10
S'.facebook.com'
p286
sg12
g283
sg13
I01
sg14
Nsg15
S'100004185676531'
p287
sg17
I01
sg18
(dp288
sg20
I0
sg21
I00
sg22
I00
sg23
I01
sg24
I01
sg25
g124
sg26
Nsg27
Nsg28
I01
sbsS'fr'
p289
(icookielib
Cookie
p290
(dp291
g9
Nsg10
S'.facebook.com'
p292
sg12
g289
sg13
I01
sg14
I1403927035
sg15
S'0DzmwtrLN5T8Lttzg.AWVDfLU4AL49fspI6FPhSF0PE4M.BThqz7.yE.AAA.AWUVKNHE'
p293
sg17
I01
sg18
(dp294
S'httponly'
p295
Nssg20
I0
sg21
I00
sg22
I00
sg23
I00
sg24
I01
sg25
g124
sg26
Nsg27
Nsg28
I00
sbsS'datr'
p296
(icookielib
Cookie
p297
(dp298
g9
Nsg10
S'.facebook.com'
p299
sg12
S'datr'
p300
sg13
I01
sg14
I1464407035
sg15
S'-qyGUyNXJQxFwOX-kkcu41_a'
p301
sg17
I01
sg18
(dp302
S'httponly'
p303
Nssg20
I0
sg21
I00
sg22
I00
sg23
I00
sg24
I01
sg25
g124
sg26
Nsg27
Nsg28
I00
sbsg153
(icookielib
Cookie
p304
(dp305
g9
Nsg10
S'.facebook.com'
p306
sg12
g153
sg13
I01
sg14
Nsg15
S'Aa6ddROM_ROzeZW8.BThqz7'
p307
sg17
I01
sg18
(dp308
S'httponly'
p309
Nssg20
I0
sg21
I00
sg22
I00
sg23
I01
sg24
I01
sg25
g124
sg26
Nsg27
Nsg28
I01
sbsS'lu'
p310
(icookielib
Cookie
p311
(dp312
g9
Nsg10
S'.facebook.com'
p313
sg12
g310
sg13
I01
sg14
I1464407035
sg15
S'QADr24ebR7FSpd2OVn_5ehUA'
p314
sg17
I01
sg18
(dp315
S'httponly'
p316
Nssg20
I0
sg21
I00
sg22
I00
sg23
I00
sg24
I01
sg25
g124
sg26
Nsg27
Nsg28
I01
sbsS'xs'
p317
(icookielib
Cookie
p318
(dp319
g9
Nsg10
S'.facebook.com'
p320
sg12
g317
sg13
I01
sg14
Nsg15
S'215%3Au_m5qAEhmgnsnw%3A2%3A1401335035%3A6520'
p321
sg17
I01
sg18
(dp322
S'httponly'
p323
Nssg20
I0
sg21
I00
sg22
I00
sg23
I01
sg24
I01
sg25
g124
sg26
Nsg27
Nsg28
I01
sbsssa(dp324
S'.facebook.com'
p325
(dp326
S'/'
p327
(dp328
S'csm'
p329
(icookielib
Cookie
p330
(dp331
g9
Nsg10
S'.facebook.com'
p332
sg12
g329
sg13
I01
sg14
Nsg15
S'2'
p333
sg17
I01
sg18
(dp334
sg20
I0
sg21
I00
sg22
I00
sg23
I01
sg24
I01
sg25
g327
sg26
Nsg27
Nsg28
I00
sbsS'c_user'
p335
(icookielib
Cookie
p336
(dp337
g9
Nsg10
S'.facebook.com'
p338
sg12
g335
sg13
I01
sg14
Nsg15
S'100004185468199'
p339
sg17
I01
sg18
(dp340
sg20
I0
sg21
I00
sg22
I00
sg23
I01
sg24
I01
sg25
g327
sg26
Nsg27
Nsg28
I01
sbsS'fr'
p341
(icookielib
Cookie
p342
(dp343
g9
Nsg10
S'.facebook.com'
p344
sg12
g341
sg13
I01
sg14
I1403927251
sg15
S'0BS5WGLpo5yKB4plS.AWX5ARYlof70nGtKVYKrGUuk6lw.BThq3T.fj.AAA.AWURqc_k'
p345
sg17
I01
sg18
(dp346
S'httponly'
p347
Nssg20
I0
sg21
I00
sg22
I00
sg23
I00
sg24
I01
sg25
g327
sg26
Nsg27
Nsg28
I00
sbsS'datr'
p348
(icookielib
Cookie
p349
(dp350
g9
Nsg10
S'.facebook.com'
p351
sg12
S'datr'
p352
sg13
I01
sg14
I1464407250
sg15
S'0a2GU4qDHwLOCnpEoWsKS5PM'
p353
sg17
I01
sg18
(dp354
S'httponly'
p355
Nssg20
I0
sg21
I00
sg22
I00
sg23
I00
sg24
I01
sg25
g327
sg26
Nsg27
Nsg28
I00
sbsS's'
p356
(icookielib
Cookie
p357
(dp358
g9
Nsg10
S'.facebook.com'
p359
sg12
g356
sg13
I01
sg14
Nsg15
S'Aa5IWgy548GHBjjR.BThq3S'
p360
sg17
I01
sg18
(dp361
S'httponly'
p362
Nssg20
I0
sg21
I00
sg22
I00
sg23
I01
sg24
I01
sg25
g327
sg26
Nsg27
Nsg28
I01
sbsS'lu'
p363
(icookielib
Cookie
p364
(dp365
g9
Nsg10
S'.facebook.com'
p366
sg12
g363
sg13
I01
sg14
I1464407251
sg15
S'QAUeJmsuod1XBOcF6ovziqbw'
p367
sg17
I01
sg18
(dp368
S'httponly'
p369
Nssg20
I0
sg21
I00
sg22
I00
sg23
I00
sg24
I01
sg25
g327
sg26
Nsg27
Nsg28
I01
sbsS'xs'
p370
(icookielib
Cookie
p371
(dp372
g9
Nsg10
S'.facebook.com'
p373
sg12
g370
sg13
I01
sg14
Nsg15
S'207%3AyR1VbOwx8mwGXw%3A2%3A1401335250%3A2958'
p374
sg17
I01
sg18
(dp375
S'httponly'
p376
Nssg20
I0
sg21
I00
sg22
I00
sg23
I01
sg24
I01
sg25
g327
sg26
Nsg27
Nsg28
I01
sbsssa(dp377
S'.facebook.com'
p378
(dp379
g327
(dp380
S'csm'
p381
(icookielib
Cookie
p382
(dp383
g9
Nsg10
S'.facebook.com'
p384
sg12
g381
sg13
I01
sg14
Nsg15
g333
sg17
I01
sg18
(dp385
sg20
I0
sg21
I00
sg22
I00
sg23
I01
sg24
I01
sg25
g327
sg26
Nsg27
Nsg28
I00
sbsS'c_user'
p386
(icookielib
Cookie
p387
(dp388
g9
Nsg10
S'.facebook.com'
p389
sg12
g386
sg13
I01
sg14
Nsg15
S'100008372649228'
p390
sg17
I01
sg18
(dp391
sg20
I0
sg21
I00
sg22
I00
sg23
I01
sg24
I01
sg25
g327
sg26
Nsg27
Nsg28
I01
sbsS'fr'
p392
(icookielib
Cookie
p393
(dp394
g9
Nsg10
S'.facebook.com'
p395
sg12
g392
sg13
I01
sg14
I1403927254
sg15
S'0PlNVTf4Op0TRdAZx.AWV8je6nC7OlYIWc6ef4a-KCllY.BThq3W.We.AAA.AWXVF4HD'
p396
sg17
I01
sg18
(dp397
S'httponly'
p398
Nssg20
I0
sg21
I00
sg22
I00
sg23
I00
sg24
I01
sg25
g327
sg26
Nsg27
Nsg28
I00
sbsS'datr'
p399
(icookielib
Cookie
p400
(dp401
g9
Nsg10
S'.facebook.com'
p402
sg12
S'datr'
p403
sg13
I01
sg14
I1464407253
sg15
S'1K2GU0V6kHMjz76ZZOEVaNIY'
p404
sg17
I01
sg18
(dp405
S'httponly'
p406
Nssg20
I0
sg21
I00
sg22
I00
sg23
I00
sg24
I01
sg25
g327
sg26
Nsg27
Nsg28
I00
sbsg356
(icookielib
Cookie
p407
(dp408
g9
Nsg10
S'.facebook.com'
p409
sg12
g356
sg13
I01
sg14
Nsg15
S'Aa5q46npo5J3mCpY.BThq3W'
p410
sg17
I01
sg18
(dp411
S'httponly'
p412
Nssg20
I0
sg21
I00
sg22
I00
sg23
I01
sg24
I01
sg25
g327
sg26
Nsg27
Nsg28
I01
sbsS'lu'
p413
(icookielib
Cookie
p414
(dp415
g9
Nsg10
S'.facebook.com'
p416
sg12
g413
sg13
I01
sg14
I1464407254
sg15
S'QA627kWbiQjkrf02hlyQKPHg'
p417
sg17
I01
sg18
(dp418
S'httponly'
p419
Nssg20
I0
sg21
I00
sg22
I00
sg23
I00
sg24
I01
sg25
g327
sg26
Nsg27
Nsg28
I01
sbsS'xs'
p420
(icookielib
Cookie
p421
(dp422
g9
Nsg10
S'.facebook.com'
p423
sg12
g420
sg13
I01
sg14
Nsg15
S'208%3AU_Xtqj5nrGG_oA%3A2%3A1401335254%3A5999'
p424
sg17
I01
sg18
(dp425
S'httponly'
p426
Nssg20
I0
sg21
I00
sg22
I00
sg23
I01
sg24
I01
sg25
g327
sg26
Nsg27
Nsg28
I01
sbsssa(dp427
S'.facebook.com'
p428
(dp429
g327
(dp430
S'csm'
p431
(icookielib
Cookie
p432
(dp433
g9
Nsg10
S'.facebook.com'
p434
sg12
g431
sg13
I01
sg14
Nsg15
g333
sg17
I01
sg18
(dp435
sg20
I0
sg21
I00
sg22
I00
sg23
I01
sg24
I01
sg25
g327
sg26
Nsg27
Nsg28
I00
sbsS'c_user'
p436
(icookielib
Cookie
p437
(dp438
g9
Nsg10
S'.facebook.com'
p439
sg12
g436
sg13
I01
sg14
Nsg15
S'100008382608948'
p440
sg17
I01
sg18
(dp441
sg20
I0
sg21
I00
sg22
I00
sg23
I01
sg24
I01
sg25
g327
sg26
Nsg27
Nsg28
I01
sbsS'fr'
p442
(icookielib
Cookie
p443
(dp444
g9
Nsg10
S'.facebook.com'
p445
sg12
g442
sg13
I01
sg14
I1403927257
sg15
S'09YGOcfY8lunNry6v.AWV3OvbXYOt9EJCB9ekyYO0Vm2g.BThq3Z.A8.AAA.AWUrlz88'
p446
sg17
I01
sg18
(dp447
S'httponly'
p448
Nssg20
I0
sg21
I00
sg22
I00
sg23
I00
sg24
I01
sg25
g327
sg26
Nsg27
Nsg28
I00
sbsS'datr'
p449
(icookielib
Cookie
p450
(dp451
g9
Nsg10
S'.facebook.com'
p452
sg12
S'datr'
p453
sg13
I01
sg14
I1464407256
sg15
S'162GU9sWIwCtYz01A-iWxzvA'
p454
sg17
I01
sg18
(dp455
S'httponly'
p456
Nssg20
I0
sg21
I00
sg22
I00
sg23
I00
sg24
I01
sg25
g327
sg26
Nsg27
Nsg28
I00
sbsg356
(icookielib
Cookie
p457
(dp458
g9
Nsg10
S'.facebook.com'
p459
sg12
g356
sg13
I01
sg14
Nsg15
S'Aa6vPRrbNz2A6_tt.BThq3Z'
p460
sg17
I01
sg18
(dp461
S'httponly'
p462
Nssg20
I0
sg21
I00
sg22
I00
sg23
I01
sg24
I01
sg25
g327
sg26
Nsg27
Nsg28
I01
sbsS'lu'
p463
(icookielib
Cookie
p464
(dp465
g9
Nsg10
S'.facebook.com'
p466
sg12
g463
sg13
I01
sg14
I1464407257
sg15
S'QAtLA3FKsWPj3gdaDX2qs5CA'
p467
sg17
I01
sg18
(dp468
S'httponly'
p469
Nssg20
I0
sg21
I00
sg22
I00
sg23
I00
sg24
I01
sg25
g327
sg26
Nsg27
Nsg28
I01
sbsS'xs'
p470
(icookielib
Cookie
p471
(dp472
g9
Nsg10
S'.facebook.com'
p473
sg12
g470
sg13
I01
sg14
Nsg15
S'66%3ACds1WO0ROT_2NQ%3A2%3A1401335257%3A9971'
p474
sg17
I01
sg18
(dp475
S'httponly'
p476
Nssg20
I0
sg21
I00
sg22
I00
sg23
I01
sg24
I01
sg25
g327
sg26
Nsg27
Nsg28
I01
sbsssa(dp477
S'.facebook.com'
p478
(dp479
g327
(dp480
S'csm'
p481
(icookielib
Cookie
p482
(dp483
g9
Nsg10
S'.facebook.com'
p484
sg12
g481
sg13
I01
sg14
Nsg15
g333
sg17
I01
sg18
(dp485
sg20
I0
sg21
I00
sg22
I00
sg23
I01
sg24
I01
sg25
g327
sg26
Nsg27
Nsg28
I00
sbsS'c_user'
p486
(icookielib
Cookie
p487
(dp488
g9
Nsg10
S'.facebook.com'
p489
sg12
g486
sg13
I01
sg14
Nsg15
S'100006965628229'
p490
sg17
I01
sg18
(dp491
sg20
I0
sg21
I00
sg22
I00
sg23
I01
sg24
I01
sg25
g327
sg26
Nsg27
Nsg28
I01
sbsS'fr'
p492
(icookielib
Cookie
p493
(dp494
g9
Nsg10
S'.facebook.com'
p495
sg12
g492
sg13
I01
sg14
I1403927260
sg15
S'0saGXNVMdY8ENCxtk.AWXT5CW76Khg6QuHHm6e-Nn0mdo.BThq3c.Lt.AAA.AWUeYZbS'
p496
sg17
I01
sg18
(dp497
S'httponly'
p498
Nssg20
I0
sg21
I00
sg22
I00
sg23
I00
sg24
I01
sg25
g327
sg26
Nsg27
Nsg28
I00
sbsS'datr'
p499
(icookielib
Cookie
p500
(dp501
g9
Nsg10
S'.facebook.com'
p502
sg12
S'datr'
p503
sg13
I01
sg14
I1464407259
sg15
S'2q2GU4371lBi4ltAmYSZrAH4'
p504
sg17
I01
sg18
(dp505
S'httponly'
p506
Nssg20
I0
sg21
I00
sg22
I00
sg23
I00
sg24
I01
sg25
g327
sg26
Nsg27
Nsg28
I00
sbsg356
(icookielib
Cookie
p507
(dp508
g9
Nsg10
S'.facebook.com'
p509
sg12
g356
sg13
I01
sg14
Nsg15
S'Aa4c5RpKbf1C9qu7.BThq3c'
p510
sg17
I01
sg18
(dp511
S'httponly'
p512
Nssg20
I0
sg21
I00
sg22
I00
sg23
I01
sg24
I01
sg25
g327
sg26
Nsg27
Nsg28
I01
sbsS'lu'
p513
(icookielib
Cookie
p514
(dp515
g9
Nsg10
S'.facebook.com'
p516
sg12
g513
sg13
I01
sg14
I1464407260
sg15
S'QA7Q-xl2w7UR0vcmPje80Tnw'
p517
sg17
I01
sg18
(dp518
S'httponly'
p519
Nssg20
I0
sg21
I00
sg22
I00
sg23
I00
sg24
I01
sg25
g327
sg26
Nsg27
Nsg28
I01
sbsS'xs'
p520
(icookielib
Cookie
p521
(dp522
g9
Nsg10
S'.facebook.com'
p523
sg12
g520
sg13
I01
sg14
Nsg15
S'96%3ADEB9O5yTYUzQig%3A2%3A1401335259%3A18925'
p524
sg17
I01
sg18
(dp525
S'httponly'
p526
Nssg20
I0
sg21
I00
sg22
I00
sg23
I01
sg24
I01
sg25
g327
sg26
Nsg27
Nsg28
I01
sbsssa(dp527
S'.facebook.com'
p528
(dp529
S'/'
p530
(dp531
S'csm'
p532
(icookielib
Cookie
p533
(dp534
g9
Nsg10
S'.facebook.com'
p535
sg12
g532
sg13
I01
sg14
Nsg15
S'2'
p536
sg17
I01
sg18
(dp537
sg20
I0
sg21
I00
sg22
I00
sg23
I01
sg24
I01
sg25
g530
sg26
Nsg27
Nsg28
I00
sbsS'c_user'
p538
(icookielib
Cookie
p539
(dp540
g9
Nsg10
S'.facebook.com'
p541
sg12
g538
sg13
I01
sg14
Nsg15
S'100006140476456'
p542
sg17
I01
sg18
(dp543
sg20
I0
sg21
I00
sg22
I00
sg23
I01
sg24
I01
sg25
g530
sg26
Nsg27
Nsg28
I01
sbsS'fr'
p544
(icookielib
Cookie
p545
(dp546
g9
Nsg10
S'.facebook.com'
p547
sg12
g544
sg13
I01
sg14
I1403928655
sg15
S'0HlGYw8snlDbtf9El.AWXEfbwNjpy3OzxutbHh5RMqrzQ.BThrNP.fm.AAA.AWU_1IRg'
p548
sg17
I01
sg18
(dp549
S'httponly'
p550
Nssg20
I0
sg21
I00
sg22
I00
sg23
I00
sg24
I01
sg25
g530
sg26
Nsg27
Nsg28
I00
sbsS'datr'
p551
(icookielib
Cookie
p552
(dp553
g9
Nsg10
S'.facebook.com'
p554
sg12
S'datr'
p555
sg13
I01
sg14
I1464408654
sg15
S'TbOGU6q8JJGM-4l7GgJUoU1U'
p556
sg17
I01
sg18
(dp557
S'httponly'
p558
Nssg20
I0
sg21
I00
sg22
I00
sg23
I00
sg24
I01
sg25
g530
sg26
Nsg27
Nsg28
I00
sbsS's'
p559
(icookielib
Cookie
p560
(dp561
g9
Nsg10
S'.facebook.com'
p562
sg12
g559
sg13
I01
sg14
Nsg15
S'Aa6Yqkhpwos_sF3G.BThrNP'
p563
sg17
I01
sg18
(dp564
S'httponly'
p565
Nssg20
I0
sg21
I00
sg22
I00
sg23
I01
sg24
I01
sg25
g530
sg26
Nsg27
Nsg28
I01
sbsS'lu'
p566
(icookielib
Cookie
p567
(dp568
g9
Nsg10
S'.facebook.com'
p569
sg12
g566
sg13
I01
sg14
I1464408655
sg15
S'QARsdDgO9GTJ2eQV81vrkSBw'
p570
sg17
I01
sg18
(dp571
S'httponly'
p572
Nssg20
I0
sg21
I00
sg22
I00
sg23
I00
sg24
I01
sg25
g530
sg26
Nsg27
Nsg28
I01
sbsS'xs'
p573
(icookielib
Cookie
p574
(dp575
g9
Nsg10
S'.facebook.com'
p576
sg12
g573
sg13
I01
sg14
Nsg15
S'212%3An3yua2t0JhUkEg%3A2%3A1401336655%3A12444'
p577
sg17
I01
sg18
(dp578
S'httponly'
p579
Nssg20
I0
sg21
I00
sg22
I00
sg23
I01
sg24
I01
sg25
g530
sg26
Nsg27
Nsg28
I01
sbsssa(dp580
S'.facebook.com'
p581
(dp582
g530
(dp583
S'csm'
p584
(icookielib
Cookie
p585
(dp586
g9
Nsg10
S'.facebook.com'
p587
sg12
g584
sg13
I01
sg14
Nsg15
g536
sg17
I01
sg18
(dp588
sg20
I0
sg21
I00
sg22
I00
sg23
I01
sg24
I01
sg25
g530
sg26
Nsg27
Nsg28
I00
sbsS'c_user'
p589
(icookielib
Cookie
p590
(dp591
g9
Nsg10
S'.facebook.com'
p592
sg12
g589
sg13
I01
sg14
Nsg15
S'100008193078289'
p593
sg17
I01
sg18
(dp594
sg20
I0
sg21
I00
sg22
I00
sg23
I01
sg24
I01
sg25
g530
sg26
Nsg27
Nsg28
I01
sbsS'fr'
p595
(icookielib
Cookie
p596
(dp597
g9
Nsg10
S'.facebook.com'
p598
sg12
g595
sg13
I01
sg14
I1403928658
sg15
S'0r7MrX8xkWhhTdjkI.AWUMdYBO2GaK87LhOpiytGAeLu0.BThrNS.Xh.AAA.AWW_i8h9'
p599
sg17
I01
sg18
(dp600
S'httponly'
p601
Nssg20
I0
sg21
I00
sg22
I00
sg23
I00
sg24
I01
sg25
g530
sg26
Nsg27
Nsg28
I00
sbsS'datr'
p602
(icookielib
Cookie
p603
(dp604
g9
Nsg10
S'.facebook.com'
p605
sg12
S'datr'
p606
sg13
I01
sg14
I1464408658
sg15
S'ULOGU_ma4-cAwNiQb3EwNDl6'
p607
sg17
I01
sg18
(dp608
S'httponly'
p609
Nssg20
I0
sg21
I00
sg22
I00
sg23
I00
sg24
I01
sg25
g530
sg26
Nsg27
Nsg28
I00
sbsg559
(icookielib
Cookie
p610
(dp611
g9
Nsg10
S'.facebook.com'
p612
sg12
g559
sg13
I01
sg14
Nsg15
S'Aa7nllO6HCEav2fm.BThrNS'
p613
sg17
I01
sg18
(dp614
S'httponly'
p615
Nssg20
I0
sg21
I00
sg22
I00
sg23
I01
sg24
I01
sg25
g530
sg26
Nsg27
Nsg28
I01
sbsS'lu'
p616
(icookielib
Cookie
p617
(dp618
g9
Nsg10
S'.facebook.com'
p619
sg12
g616
sg13
I01
sg14
I1464408658
sg15
S'QAq6-ITrpB0noADwre1BRshw'
p620
sg17
I01
sg18
(dp621
S'httponly'
p622
Nssg20
I0
sg21
I00
sg22
I00
sg23
I00
sg24
I01
sg25
g530
sg26
Nsg27
Nsg28
I01
sbsS'xs'
p623
(icookielib
Cookie
p624
(dp625
g9
Nsg10
S'.facebook.com'
p626
sg12
g623
sg13
I01
sg14
Nsg15
S'77%3AuhdfvrPvk05TSQ%3A2%3A1401336658%3A13192'
p627
sg17
I01
sg18
(dp628
S'httponly'
p629
Nssg20
I0
sg21
I00
sg22
I00
sg23
I01
sg24
I01
sg25
g530
sg26
Nsg27
Nsg28
I01
sbsssa(dp630
S'.facebook.com'
p631
(dp632
g530
(dp633
S'csm'
p634
(icookielib
Cookie
p635
(dp636
g9
Nsg10
S'.facebook.com'
p637
sg12
g634
sg13
I01
sg14
Nsg15
g536
sg17
I01
sg18
(dp638
sg20
I0
sg21
I00
sg22
I00
sg23
I01
sg24
I01
sg25
g530
sg26
Nsg27
Nsg28
I00
sbsS'c_user'
p639
(icookielib
Cookie
p640
(dp641
g9
Nsg10
S'.facebook.com'
p642
sg12
g639
sg13
I01
sg14
Nsg15
S'100004741636361'
p643
sg17
I01
sg18
(dp644
sg20
I0
sg21
I00
sg22
I00
sg23
I01
sg24
I01
sg25
g530
sg26
Nsg27
Nsg28
I01
sbsS'fr'
p645
(icookielib
Cookie
p646
(dp647
g9
Nsg10
S'.facebook.com'
p648
sg12
g645
sg13
I01
sg14
I1403928660
sg15
S'09mLkbeWPzTzwm5wl.AWXRr5mBhqvVUKR1NGsgD0Ewimg.BThrNU.1c.AAA.AWXA2bZq'
p649
sg17
I01
sg18
(dp650
S'httponly'
p651
Nssg20
I0
sg21
I00
sg22
I00
sg23
I00
sg24
I01
sg25
g530
sg26
Nsg27
Nsg28
I00
sbsS'datr'
p652
(icookielib
Cookie
p653
(dp654
g9
Nsg10
S'.facebook.com'
p655
sg12
S'datr'
p656
sg13
I01
sg14
I1464408660
sg15
S'U7OGUwm_PGw0JElGSNSFR3e8'
p657
sg17
I01
sg18
(dp658
S'httponly'
p659
Nssg20
I0
sg21
I00
sg22
I00
sg23
I00
sg24
I01
sg25
g530
sg26
Nsg27
Nsg28
I00
sbsg559
(icookielib
Cookie
p660
(dp661
g9
Nsg10
S'.facebook.com'
p662
sg12
g559
sg13
I01
sg14
Nsg15
S'Aa4Yz9CZ1njbksh_.BThrNU'
p663
sg17
I01
sg18
(dp664
S'httponly'
p665
Nssg20
I0
sg21
I00
sg22
I00
sg23
I01
sg24
I01
sg25
g530
sg26
Nsg27
Nsg28
I01
sbsS'lu'
p666
(icookielib
Cookie
p667
(dp668
g9
Nsg10
S'.facebook.com'
p669
sg12
g666
sg13
I01
sg14
I1464408660
sg15
S'QAmVNbG-ulo5RJCrkavNO7wQ'
p670
sg17
I01
sg18
(dp671
S'httponly'
p672
Nssg20
I0
sg21
I00
sg22
I00
sg23
I00
sg24
I01
sg25
g530
sg26
Nsg27
Nsg28
I01
sbsS'xs'
p673
(icookielib
Cookie
p674
(dp675
g9
Nsg10
S'.facebook.com'
p676
sg12
g673
sg13
I01
sg14
Nsg15
S'105%3ADaIQcrGTYluVmg%3A2%3A1401336660%3A3936'
p677
sg17
I01
sg18
(dp678
S'httponly'
p679
Nssg20
I0
sg21
I00
sg22
I00
sg23
I01
sg24
I01
sg25
g530
sg26
Nsg27
Nsg28
I01
sbsssa(dp680
S'.facebook.com'
p681
(dp682
g530
(dp683
S'csm'
p684
(icookielib
Cookie
p685
(dp686
g9
Nsg10
S'.facebook.com'
p687
sg12
g684
sg13
I01
sg14
Nsg15
g536
sg17
I01
sg18
(dp688
sg20
I0
sg21
I00
sg22
I00
sg23
I01
sg24
I01
sg25
g530
sg26
Nsg27
Nsg28
I00
sbsS'c_user'
p689
(icookielib
Cookie
p690
(dp691
g9
Nsg10
S'.facebook.com'
p692
sg12
g689
sg13
I01
sg14
Nsg15
S'100004796746486'
p693
sg17
I01
sg18
(dp694
sg20
I0
sg21
I00
sg22
I00
sg23
I01
sg24
I01
sg25
g530
sg26
Nsg27
Nsg28
I01
sbsS'fr'
p695
(icookielib
Cookie
p696
(dp697
g9
Nsg10
S'.facebook.com'
p698
sg12
g695
sg13
I01
sg14
I1403928663
sg15
S'0bsBjHeYVND3TxTuI.AWVQ0p9w7qUKTKm1V83rnrCZVho.BThrNX.DS.AAA.AWXD3MiH'
p699
sg17
I01
sg18
(dp700
S'httponly'
p701
Nssg20
I0
sg21
I00
sg22
I00
sg23
I00
sg24
I01
sg25
g530
sg26
Nsg27
Nsg28
I00
sbsS'datr'
p702
(icookielib
Cookie
p703
(dp704
g9
Nsg10
S'.facebook.com'
p705
sg12
S'datr'
p706
sg13
I01
sg14
I1464408662
sg15
S'VbOGU4KRJBgiPN-NMiJylNWT'
p707
sg17
I01
sg18
(dp708
S'httponly'
p709
Nssg20
I0
sg21
I00
sg22
I00
sg23
I00
sg24
I01
sg25
g530
sg26
Nsg27
Nsg28
I00
sbsg559
(icookielib
Cookie
p710
(dp711
g9
Nsg10
S'.facebook.com'
p712
sg12
g559
sg13
I01
sg14
Nsg15
S'Aa5Jk6oQFeAOj3La.BThrNX'
p713
sg17
I01
sg18
(dp714
S'httponly'
p715
Nssg20
I0
sg21
I00
sg22
I00
sg23
I01
sg24
I01
sg25
g530
sg26
Nsg27
Nsg28
I01
sbsS'lu'
p716
(icookielib
Cookie
p717
(dp718
g9
Nsg10
S'.facebook.com'
p719
sg12
g716
sg13
I01
sg14
I1464408663
sg15
S'QAgv5woYLxLGS6YnUkKt2s0w'
p720
sg17
I01
sg18
(dp721
S'httponly'
p722
Nssg20
I0
sg21
I00
sg22
I00
sg23
I00
sg24
I01
sg25
g530
sg26
Nsg27
Nsg28
I01
sbsS'xs'
p723
(icookielib
Cookie
p724
(dp725
g9
Nsg10
S'.facebook.com'
p726
sg12
g723
sg13
I01
sg14
Nsg15
S'196%3AvWP4ZX9tar7krA%3A2%3A1401336663%3A7690'
p727
sg17
I01
sg18
(dp728
S'httponly'
p729
Nssg20
I0
sg21
I00
sg22
I00
sg23
I01
sg24
I01
sg25
g530
sg26
Nsg27
Nsg28
I01
sbsssa(dp730
S'.facebook.com'
p731
(dp732
g530
(dp733
S'csm'
p734
(icookielib
Cookie
p735
(dp736
g9
Nsg10
S'.facebook.com'
p737
sg12
g734
sg13
I01
sg14
Nsg15
g536
sg17
I01
sg18
(dp738
sg20
I0
sg21
I00
sg22
I00
sg23
I01
sg24
I01
sg25
g530
sg26
Nsg27
Nsg28
I00
sbsS'c_user'
p739
(icookielib
Cookie
p740
(dp741
g9
Nsg10
S'.facebook.com'
p742
sg12
g739
sg13
I01
sg14
Nsg15
S'100005675986453'
p743
sg17
I01
sg18
(dp744
sg20
I0
sg21
I00
sg22
I00
sg23
I01
sg24
I01
sg25
g530
sg26
Nsg27
Nsg28
I01
sbsS'fr'
p745
(icookielib
Cookie
p746
(dp747
g9
Nsg10
S'.facebook.com'
p748
sg12
g745
sg13
I01
sg14
I1403928665
sg15
S'0d4slop54QXZE0KN3.AWXhvOJY4i1aset0rrSIezVUgiI.BThrNZ.ls.AAA.AWUfRWlr'
p749
sg17
I01
sg18
(dp750
S'httponly'
p751
Nssg20
I0
sg21
I00
sg22
I00
sg23
I00
sg24
I01
sg25
g530
sg26
Nsg27
Nsg28
I00
sbsS'datr'
p752
(icookielib
Cookie
p753
(dp754
g9
Nsg10
S'.facebook.com'
p755
sg12
S'datr'
p756
sg13
I01
sg14
I1464408665
sg15
S'WLOGU1xdHzI5uOylpj4oRoL2'
p757
sg17
I01
sg18
(dp758
S'httponly'
p759
Nssg20
I0
sg21
I00
sg22
I00
sg23
I00
sg24
I01
sg25
g530
sg26
Nsg27
Nsg28
I00
sbsg559
(icookielib
Cookie
p760
(dp761
g9
Nsg10
S'.facebook.com'
p762
sg12
g559
sg13
I01
sg14
Nsg15
S'Aa4LXZhlV8XbQDPq.BThrNZ'
p763
sg17
I01
sg18
(dp764
S'httponly'
p765
Nssg20
I0
sg21
I00
sg22
I00
sg23
I01
sg24
I01
sg25
g530
sg26
Nsg27
Nsg28
I01
sbsS'lu'
p766
(icookielib
Cookie
p767
(dp768
g9
Nsg10
S'.facebook.com'
p769
sg12
g766
sg13
I01
sg14
I1464408665
sg15
S'QAFQaRBl0fL5gX4hWOId5VYA'
p770
sg17
I01
sg18
(dp771
S'httponly'
p772
Nssg20
I0
sg21
I00
sg22
I00
sg23
I00
sg24
I01
sg25
g530
sg26
Nsg27
Nsg28
I01
sbsS'xs'
p773
(icookielib
Cookie
p774
(dp775
g9
Nsg10
S'.facebook.com'
p776
sg12
g773
sg13
I01
sg14
Nsg15
S'253%3A7MT1_CfmFoDpqw%3A2%3A1401336665%3A15895'
p777
sg17
I01
sg18
(dp778
S'httponly'
p779
Nssg20
I0
sg21
I00
sg22
I00
sg23
I01
sg24
I01
sg25
g530
sg26
Nsg27
Nsg28
I01
sbsssa(dp780
S'.facebook.com'
p781
(dp782
g530
(dp783
S'csm'
p784
(icookielib
Cookie
p785
(dp786
g9
Nsg10
S'.facebook.com'
p787
sg12
g784
sg13
I01
sg14
Nsg15
g536
sg17
I01
sg18
(dp788
sg20
I0
sg21
I00
sg22
I00
sg23
I01
sg24
I01
sg25
g530
sg26
Nsg27
Nsg28
I00
sbsS'c_user'
p789
(icookielib
Cookie
p790
(dp791
g9
Nsg10
S'.facebook.com'
p792
sg12
g789
sg13
I01
sg14
Nsg15
S'100008383718757'
p793
sg17
I01
sg18
(dp794
sg20
I0
sg21
I00
sg22
I00
sg23
I01
sg24
I01
sg25
g530
sg26
Nsg27
Nsg28
I01
sbsS'fr'
p795
(icookielib
Cookie
p796
(dp797
g9
Nsg10
S'.facebook.com'
p798
sg12
g795
sg13
I01
sg14
I1403928667
sg15
S'0TvWFZu0nJhdlVuF5.AWV1GELrY17wdgiTuSA5ghl1ikE.BThrNb.5q.AAA.AWUnjQaF'
p799
sg17
I01
sg18
(dp800
S'httponly'
p801
Nssg20
I0
sg21
I00
sg22
I00
sg23
I00
sg24
I01
sg25
g530
sg26
Nsg27
Nsg28
I00
sbsS'datr'
p802
(icookielib
Cookie
p803
(dp804
g9
Nsg10
S'.facebook.com'
p805
sg12
S'datr'
p806
sg13
I01
sg14
I1464408667
sg15
S'WrOGU4HCMMXoycwJF55Mk7Tr'
p807
sg17
I01
sg18
(dp808
S'httponly'
p809
Nssg20
I0
sg21
I00
sg22
I00
sg23
I00
sg24
I01
sg25
g530
sg26
Nsg27
Nsg28
I00
sbsg559
(icookielib
Cookie
p810
(dp811
g9
Nsg10
S'.facebook.com'
p812
sg12
g559
sg13
I01
sg14
Nsg15
S'Aa46n89sPRcHLRJ0.BThrNb'
p813
sg17
I01
sg18
(dp814
S'httponly'
p815
Nssg20
I0
sg21
I00
sg22
I00
sg23
I01
sg24
I01
sg25
g530
sg26
Nsg27
Nsg28
I01
sbsS'lu'
p816
(icookielib
Cookie
p817
(dp818
g9
Nsg10
S'.facebook.com'
p819
sg12
g816
sg13
I01
sg14
I1464408667
sg15
S'QAd-UpW9AZANr4Ct1kl8erwg'
p820
sg17
I01
sg18
(dp821
S'httponly'
p822
Nssg20
I0
sg21
I00
sg22
I00
sg23
I00
sg24
I01
sg25
g530
sg26
Nsg27
Nsg28
I01
sbsS'xs'
p823
(icookielib
Cookie
p824
(dp825
g9
Nsg10
S'.facebook.com'
p826
sg12
g823
sg13
I01
sg14
Nsg15
S'245%3AWR85cuW45T_5xw%3A2%3A1401336667%3A1478'
p827
sg17
I01
sg18
(dp828
S'httponly'
p829
Nssg20
I0
sg21
I00
sg22
I00
sg23
I01
sg24
I01
sg25
g530
sg26
Nsg27
Nsg28
I01
sbsssa(dp830
S'.facebook.com'
p831
(dp832
g530
(dp833
S'csm'
p834
(icookielib
Cookie
p835
(dp836
g9
Nsg10
S'.facebook.com'
p837
sg12
g834
sg13
I01
sg14
Nsg15
g536
sg17
I01
sg18
(dp838
sg20
I0
sg21
I00
sg22
I00
sg23
I01
sg24
I01
sg25
g530
sg26
Nsg27
Nsg28
I00
sbsS'c_user'
p839
(icookielib
Cookie
p840
(dp841
g9
Nsg10
S'.facebook.com'
p842
sg12
g839
sg13
I01
sg14
Nsg15
S'100006019876485'
p843
sg17
I01
sg18
(dp844
sg20
I0
sg21
I00
sg22
I00
sg23
I01
sg24
I01
sg25
g530
sg26
Nsg27
Nsg28
I01
sbsS'fr'
p845
(icookielib
Cookie
p846
(dp847
g9
Nsg10
S'.facebook.com'
p848
sg12
g845
sg13
I01
sg14
I1403928670
sg15
S'0Iy3PGsMl3Wb4LRwb.AWW7LMjqFDHViCA0pnFN_gW5f_c.BThrNe.xh.AAA.AWXY--g3'
p849
sg17
I01
sg18
(dp850
S'httponly'
p851
Nssg20
I0
sg21
I00
sg22
I00
sg23
I00
sg24
I01
sg25
g530
sg26
Nsg27
Nsg28
I00
sbsS'datr'
p852
(icookielib
Cookie
p853
(dp854
g9
Nsg10
S'.facebook.com'
p855
sg12
S'datr'
p856
sg13
I01
sg14
I1464408669
sg15
S'XLOGU_w_j-JuHHXpYAevHI2G'
p857
sg17
I01
sg18
(dp858
S'httponly'
p859
Nssg20
I0
sg21
I00
sg22
I00
sg23
I00
sg24
I01
sg25
g530
sg26
Nsg27
Nsg28
I00
sbsg559
(icookielib
Cookie
p860
(dp861
g9
Nsg10
S'.facebook.com'
p862
sg12
g559
sg13
I01
sg14
Nsg15
S'Aa5RgD5LGINNP9EA.BThrNe'
p863
sg17
I01
sg18
(dp864
S'httponly'
p865
Nssg20
I0
sg21
I00
sg22
I00
sg23
I01
sg24
I01
sg25
g530
sg26
Nsg27
Nsg28
I01
sbsS'lu'
p866
(icookielib
Cookie
p867
(dp868
g9
Nsg10
S'.facebook.com'
p869
sg12
g866
sg13
I01
sg14
I1464408670
sg15
S'QAu0Gb46qmvQF6v_33qWsnxg'
p870
sg17
I01
sg18
(dp871
S'httponly'
p872
Nssg20
I0
sg21
I00
sg22
I00
sg23
I00
sg24
I01
sg25
g530
sg26
Nsg27
Nsg28
I01
sbsS'xs'
p873
(icookielib
Cookie
p874
(dp875
g9
Nsg10
S'.facebook.com'
p876
sg12
g873
sg13
I01
sg14
Nsg15
S'188%3A4FW8SdkdMFplNQ%3A2%3A1401336670%3A9754'
p877
sg17
I01
sg18
(dp878
S'httponly'
p879
Nssg20
I0
sg21
I00
sg22
I00
sg23
I01
sg24
I01
sg25
g530
sg26
Nsg27
Nsg28
I01
sbsssa(dp880
S'.facebook.com'
p881
(dp882
g530
(dp883
S'csm'
p884
(icookielib
Cookie
p885
(dp886
g9
Nsg10
S'.facebook.com'
p887
sg12
g884
sg13
I01
sg14
Nsg15
g536
sg17
I01
sg18
(dp888
sg20
I0
sg21
I00
sg22
I00
sg23
I01
sg24
I01
sg25
g530
sg26
Nsg27
Nsg28
I00
sbsS'c_user'
p889
(icookielib
Cookie
p890
(dp891
g9
Nsg10
S'.facebook.com'
p892
sg12
g889
sg13
I01
sg14
Nsg15
S'100008367914111'
p893
sg17
I01
sg18
(dp894
sg20
I0
sg21
I00
sg22
I00
sg23
I01
sg24
I01
sg25
g530
sg26
Nsg27
Nsg28
I01
sbsS'fr'
p895
(icookielib
Cookie
p896
(dp897
g9
Nsg10
S'.facebook.com'
p898
sg12
g895
sg13
I01
sg14
I1403928672
sg15
S'0fCalLptNDDnRberu.AWW4OXBu8yuUTVN8Z80KEMuhK0w.BThrNg.05.AAA.AWUZwbMV'
p899
sg17
I01
sg18
(dp900
S'httponly'
p901
Nssg20
I0
sg21
I00
sg22
I00
sg23
I00
sg24
I01
sg25
g530
sg26
Nsg27
Nsg28
I00
sbsS'datr'
p902
(icookielib
Cookie
p903
(dp904
g9
Nsg10
S'.facebook.com'
p905
sg12
S'datr'
p906
sg13
I01
sg14
I1464408672
sg15
S'X7OGU13_dBlj_qRyJSAXgCsD'
p907
sg17
I01
sg18
(dp908
S'httponly'
p909
Nssg20
I0
sg21
I00
sg22
I00
sg23
I00
sg24
I01
sg25
g530
sg26
Nsg27
Nsg28
I00
sbsg559
(icookielib
Cookie
p910
(dp911
g9
Nsg10
S'.facebook.com'
p912
sg12
g559
sg13
I01
sg14
Nsg15
S'Aa5EZgMNb5E5ccdM.BThrNg'
p913
sg17
I01
sg18
(dp914
S'httponly'
p915
Nssg20
I0
sg21
I00
sg22
I00
sg23
I01
sg24
I01
sg25
g530
sg26
Nsg27
Nsg28
I01
sbsS'lu'
p916
(icookielib
Cookie
p917
(dp918
g9
Nsg10
S'.facebook.com'
p919
sg12
g916
sg13
I01
sg14
I1464408672
sg15
S'QAMh5OfxjdpOVIQmQCFpJYZg'
p920
sg17
I01
sg18
(dp921
S'httponly'
p922
Nssg20
I0
sg21
I00
sg22
I00
sg23
I00
sg24
I01
sg25
g530
sg26
Nsg27
Nsg28
I01
sbsS'xs'
p923
(icookielib
Cookie
p924
(dp925
g9
Nsg10
S'.facebook.com'
p926
sg12
g923
sg13
I01
sg14
Nsg15
S'249%3ARRVv4mzV3zijaQ%3A2%3A1401336672%3A8075'
p927
sg17
I01
sg18
(dp928
S'httponly'
p929
Nssg20
I0
sg21
I00
sg22
I00
sg23
I01
sg24
I01
sg25
g530
sg26
Nsg27
Nsg28
I01
sbsssa(dp930
S'.facebook.com'
p931
(dp932
S'/'
p933
(dp934
S'csm'
p935
(icookielib
Cookie
p936
(dp937
g9
Nsg10
S'.facebook.com'
p938
sg12
g935
sg13
I01
sg14
Nsg15
S'2'
p939
sg17
I01
sg18
(dp940
sg20
I0
sg21
I00
sg22
I00
sg23
I01
sg24
I01
sg25
g933
sg26
Nsg27
Nsg28
I00
sbsS'c_user'
p941
(icookielib
Cookie
p942
(dp943
g9
Nsg10
S'.facebook.com'
p944
sg12
g941
sg13
I01
sg14
Nsg15
S'100007071811818'
p945
sg17
I01
sg18
(dp946
sg20
I0
sg21
I00
sg22
I00
sg23
I01
sg24
I01
sg25
g933
sg26
Nsg27
Nsg28
I01
sbsS'fr'
p947
(icookielib
Cookie
p948
(dp949
g9
Nsg10
S'.facebook.com'
p950
sg12
g947
sg13
I01
sg14
I1403930444
sg15
S'0mfbTdM9LE1S8kA1I.AWW6nXAILA8PXuDJhlVqfE33HiM.BThrpM.fv.AAA.AWUugUKg'
p951
sg17
I01
sg18
(dp952
S'httponly'
p953
Nssg20
I0
sg21
I00
sg22
I00
sg23
I00
sg24
I01
sg25
g933
sg26
Nsg27
Nsg28
I00
sbsS'datr'
p954
(icookielib
Cookie
p955
(dp956
g9
Nsg10
S'.facebook.com'
p957
sg12
S'datr'
p958
sg13
I01
sg14
I1464410444
sg15
S'S7qGU8Q98hmtSBo8mq90dPD_'
p959
sg17
I01
sg18
(dp960
S'httponly'
p961
Nssg20
I0
sg21
I00
sg22
I00
sg23
I00
sg24
I01
sg25
g933
sg26
Nsg27
Nsg28
I00
sbsS's'
p962
(icookielib
Cookie
p963
(dp964
g9
Nsg10
S'.facebook.com'
p965
sg12
g962
sg13
I01
sg14
Nsg15
S'Aa7FoipD9ERMJ5mN.BThrpM'
p966
sg17
I01
sg18
(dp967
S'httponly'
p968
Nssg20
I0
sg21
I00
sg22
I00
sg23
I01
sg24
I01
sg25
g933
sg26
Nsg27
Nsg28
I01
sbsS'lu'
p969
(icookielib
Cookie
p970
(dp971
g9
Nsg10
S'.facebook.com'
p972
sg12
g969
sg13
I01
sg14
I1464410444
sg15
S'QAmV3HAjpd3Jxv-1oTS0KKBw'
p973
sg17
I01
sg18
(dp974
S'httponly'
p975
Nssg20
I0
sg21
I00
sg22
I00
sg23
I00
sg24
I01
sg25
g933
sg26
Nsg27
Nsg28
I01
sbsS'xs'
p976
(icookielib
Cookie
p977
(dp978
g9
Nsg10
S'.facebook.com'
p979
sg12
g976
sg13
I01
sg14
Nsg15
S'100%3AMna_z_yDgg8XAg%3A2%3A1401338444%3A6013'
p980
sg17
I01
sg18
(dp981
S'httponly'
p982
Nssg20
I0
sg21
I00
sg22
I00
sg23
I01
sg24
I01
sg25
g933
sg26
Nsg27
Nsg28
I01
sbsssa(dp983
S'.facebook.com'
p984
(dp985
g933
(dp986
S'csm'
p987
(icookielib
Cookie
p988
(dp989
g9
Nsg10
S'.facebook.com'
p990
sg12
g987
sg13
I01
sg14
Nsg15
g939
sg17
I01
sg18
(dp991
sg20
I0
sg21
I00
sg22
I00
sg23
I01
sg24
I01
sg25
g933
sg26
Nsg27
Nsg28
I00
sbsS'c_user'
p992
(icookielib
Cookie
p993
(dp994
g9
Nsg10
S'.facebook.com'
p995
sg12
g992
sg13
I01
sg14
Nsg15
S'100006902598237'
p996
sg17
I01
sg18
(dp997
sg20
I0
sg21
I00
sg22
I00
sg23
I01
sg24
I01
sg25
g933
sg26
Nsg27
Nsg28
I01
sbsS'fr'
p998
(icookielib
Cookie
p999
(dp1000
g9
Nsg10
S'.facebook.com'
p1001
sg12
g998
sg13
I01
sg14
I1403930449
sg15
S'0Sd6G4HhSzS9l3k4h.AWULHwy_DrAvHeDVyjnFCjnO8yU.BThrpR.V7.AAA.AWXxtviJ'
p1002
sg17
I01
sg18
(dp1003
S'httponly'
p1004
Nssg20
I0
sg21
I00
sg22
I00
sg23
I00
sg24
I01
sg25
g933
sg26
Nsg27
Nsg28
I00
sbsS'datr'
p1005
(icookielib
Cookie
p1006
(dp1007
g9
Nsg10
S'.facebook.com'
p1008
sg12
S'datr'
p1009
sg13
I01
sg14
I1464410449
sg15
S'ULqGUz2ICqn3-TKdmo0CA8Ze'
p1010
sg17
I01
sg18
(dp1011
S'httponly'
p1012
Nssg20
I0
sg21
I00
sg22
I00
sg23
I00
sg24
I01
sg25
g933
sg26
Nsg27
Nsg28
I00
sbsg962
(icookielib
Cookie
p1013
(dp1014
g9
Nsg10
S'.facebook.com'
p1015
sg12
g962
sg13
I01
sg14
Nsg15
S'Aa6XQ8NrvQLfVcr2.BThrpR'
p1016
sg17
I01
sg18
(dp1017
S'httponly'
p1018
Nssg20
I0
sg21
I00
sg22
I00
sg23
I01
sg24
I01
sg25
g933
sg26
Nsg27
Nsg28
I01
sbsS'lu'
p1019
(icookielib
Cookie
p1020
(dp1021
g9
Nsg10
S'.facebook.com'
p1022
sg12
g1019
sg13
I01
sg14
I1464410449
sg15
S'QAed4NYD_z6TfjEPQr6AkqpQ'
p1023
sg17
I01
sg18
(dp1024
S'httponly'
p1025
Nssg20
I0
sg21
I00
sg22
I00
sg23
I00
sg24
I01
sg25
g933
sg26
Nsg27
Nsg28
I01
sbsS'xs'
p1026
(icookielib
Cookie
p1027
(dp1028
g9
Nsg10
S'.facebook.com'
p1029
sg12
g1026
sg13
I01
sg14
Nsg15
S'139%3AOERNsJPTIW_IyA%3A2%3A1401338449%3A12986'
p1030
sg17
I01
sg18
(dp1031
S'httponly'
p1032
Nssg20
I0
sg21
I00
sg22
I00
sg23
I01
sg24
I01
sg25
g933
sg26
Nsg27
Nsg28
I01
sbsssa(dp1033
S'.facebook.com'
p1034
(dp1035
g933
(dp1036
S'csm'
p1037
(icookielib
Cookie
p1038
(dp1039
g9
Nsg10
S'.facebook.com'
p1040
sg12
g1037
sg13
I01
sg14
Nsg15
g939
sg17
I01
sg18
(dp1041
sg20
I0
sg21
I00
sg22
I00
sg23
I01
sg24
I01
sg25
g933
sg26
Nsg27
Nsg28
I00
sbsS'c_user'
p1042
(icookielib
Cookie
p1043
(dp1044
g9
Nsg10
S'.facebook.com'
p1045
sg12
g1042
sg13
I01
sg14
Nsg15
S'100005642776486'
p1046
sg17
I01
sg18
(dp1047
sg20
I0
sg21
I00
sg22
I00
sg23
I01
sg24
I01
sg25
g933
sg26
Nsg27
Nsg28
I01
sbsS'fr'
p1048
(icookielib
Cookie
p1049
(dp1050
g9
Nsg10
S'.facebook.com'
p1051
sg12
g1048
sg13
I01
sg14
I1403930452
sg15
S'0nuVTBgcEyxRhMzBM.AWWKHGq3p7_2xwR90SsOa9xasRE.BThrpU._b.AAA.AWV--7Qs'
p1052
sg17
I01
sg18
(dp1053
S'httponly'
p1054
Nssg20
I0
sg21
I00
sg22
I00
sg23
I00
sg24
I01
sg25
g933
sg26
Nsg27
Nsg28
I00
sbsS'datr'
p1055
(icookielib
Cookie
p1056
(dp1057
g9
Nsg10
S'.facebook.com'
p1058
sg12
S'datr'
p1059
sg13
I01
sg14
I1464410451
sg15
S'UrqGU5oSwcB-2nxBW89Jdusi'
p1060
sg17
I01
sg18
(dp1061
S'httponly'
p1062
Nssg20
I0
sg21
I00
sg22
I00
sg23
I00
sg24
I01
sg25
g933
sg26
Nsg27
Nsg28
I00
sbsg962
(icookielib
Cookie
p1063
(dp1064
g9
Nsg10
S'.facebook.com'
p1065
sg12
g962
sg13
I01
sg14
Nsg15
S'Aa6CEpVRaWRIOAzt.BThrpU'
p1066
sg17
I01
sg18
(dp1067
S'httponly'
p1068
Nssg20
I0
sg21
I00
sg22
I00
sg23
I01
sg24
I01
sg25
g933
sg26
Nsg27
Nsg28
I01
sbsS'lu'
p1069
(icookielib
Cookie
p1070
(dp1071
g9
Nsg10
S'.facebook.com'
p1072
sg12
g1069
sg13
I01
sg14
I1464410452
sg15
S'QAXXkJmuP2vxeZwX6DrVSGIg'
p1073
sg17
I01
sg18
(dp1074
S'httponly'
p1075
Nssg20
I0
sg21
I00
sg22
I00
sg23
I00
sg24
I01
sg25
g933
sg26
Nsg27
Nsg28
I01
sbsS'xs'
p1076
(icookielib
Cookie
p1077
(dp1078
g9
Nsg10
S'.facebook.com'
p1079
sg12
g1076
sg13
I01
sg14
Nsg15
S'231%3ABzxe5h_jCR4HwA%3A2%3A1401338452%3A15801'
p1080
sg17
I01
sg18
(dp1081
S'httponly'
p1082
Nssg20
I0
sg21
I00
sg22
I00
sg23
I01
sg24
I01
sg25
g933
sg26
Nsg27
Nsg28
I01
sbsssa(dp1083
S'.facebook.com'
p1084
(dp1085
g933
(dp1086
S'csm'
p1087
(icookielib
Cookie
p1088
(dp1089
g9
Nsg10
S'.facebook.com'
p1090
sg12
g1087
sg13
I01
sg14
Nsg15
g939
sg17
I01
sg18
(dp1091
sg20
I0
sg21
I00
sg22
I00
sg23
I01
sg24
I01
sg25
g933
sg26
Nsg27
Nsg28
I00
sbsS'c_user'
p1092
(icookielib
Cookie
p1093
(dp1094
g9
Nsg10
S'.facebook.com'
p1095
sg12
g1092
sg13
I01
sg14
Nsg15
S'100006266296469'
p1096
sg17
I01
sg18
(dp1097
sg20
I0
sg21
I00
sg22
I00
sg23
I01
sg24
I01
sg25
g933
sg26
Nsg27
Nsg28
I01
sbsS'fr'
p1098
(icookielib
Cookie
p1099
(dp1100
g9
Nsg10
S'.facebook.com'
p1101
sg12
g1098
sg13
I01
sg14
I1403930455
sg15
S'0ngTOMOaqO8jF2byK.AWVEnLNFZvgvGhwH5IyZ7mbqCk8.BThrpX.ne.AAA.AWUDTTCJ'
p1102
sg17
I01
sg18
(dp1103
S'httponly'
p1104
Nssg20
I0
sg21
I00
sg22
I00
sg23
I00
sg24
I01
sg25
g933
sg26
Nsg27
Nsg28
I00
sbsS'datr'
p1105
(icookielib
Cookie
p1106
(dp1107
g9
Nsg10
S'.facebook.com'
p1108
sg12
S'datr'
p1109
sg13
I01
sg14
I1464410455
sg15
S'VbqGU8bSFYjhqvzGhukiSOKv'
p1110
sg17
I01
sg18
(dp1111
S'httponly'
p1112
Nssg20
I0
sg21
I00
sg22
I00
sg23
I00
sg24
I01
sg25
g933
sg26
Nsg27
Nsg28
I00
sbsg962
(icookielib
Cookie
p1113
(dp1114
g9
Nsg10
S'.facebook.com'
p1115
sg12
g962
sg13
I01
sg14
Nsg15
S'Aa4vnmunBNxaWs61.BThrpX'
p1116
sg17
I01
sg18
(dp1117
S'httponly'
p1118
Nssg20
I0
sg21
I00
sg22
I00
sg23
I01
sg24
I01
sg25
g933
sg26
Nsg27
Nsg28
I01
sbsS'lu'
p1119
(icookielib
Cookie
p1120
(dp1121
g9
Nsg10
S'.facebook.com'
p1122
sg12
g1119
sg13
I01
sg14
I1464410455
sg15
S'QAmy75RQJJKuEKd9Y5AUJauw'
p1123
sg17
I01
sg18
(dp1124
S'httponly'
p1125
Nssg20
I0
sg21
I00
sg22
I00
sg23
I00
sg24
I01
sg25
g933
sg26
Nsg27
Nsg28
I01
sbsS'xs'
p1126
(icookielib
Cookie
p1127
(dp1128
g9
Nsg10
S'.facebook.com'
p1129
sg12
g1126
sg13
I01
sg14
Nsg15
S'17%3A7GOHfEMMLcuoXg%3A2%3A1401338455%3A8311'
p1130
sg17
I01
sg18
(dp1131
S'httponly'
p1132
Nssg20
I0
sg21
I00
sg22
I00
sg23
I01
sg24
I01
sg25
g933
sg26
Nsg27
Nsg28
I01
sbsssa(dp1133
S'.facebook.com'
p1134
(dp1135
g933
(dp1136
S'csm'
p1137
(icookielib
Cookie
p1138
(dp1139
g9
Nsg10
S'.facebook.com'
p1140
sg12
g1137
sg13
I01
sg14
Nsg15
g939
sg17
I01
sg18
(dp1141
sg20
I0
sg21
I00
sg22
I00
sg23
I01
sg24
I01
sg25
g933
sg26
Nsg27
Nsg28
I00
sbsS'c_user'
p1142
(icookielib
Cookie
p1143
(dp1144
g9
Nsg10
S'.facebook.com'
p1145
sg12
g1142
sg13
I01
sg14
Nsg15
S'100007882578229'
p1146
sg17
I01
sg18
(dp1147
sg20
I0
sg21
I00
sg22
I00
sg23
I01
sg24
I01
sg25
g933
sg26
Nsg27
Nsg28
I01
sbsS'fr'
p1148
(icookielib
Cookie
p1149
(dp1150
g9
Nsg10
S'.facebook.com'
p1151
sg12
g1148
sg13
I01
sg14
I1403930458
sg15
S'0fRLuSC4OvuCBzcFH.AWWEljIr_S3E1HesG_Jr8KxCrpE.BThrpa.Wv.AAA.AWWwFzrU'
p1152
sg17
I01
sg18
(dp1153
S'httponly'
p1154
Nssg20
I0
sg21
I00
sg22
I00
sg23
I00
sg24
I01
sg25
g933
sg26
Nsg27
Nsg28
I00
sbsS'datr'
p1155
(icookielib
Cookie
p1156
(dp1157
g9
Nsg10
S'.facebook.com'
p1158
sg12
S'datr'
p1159
sg13
I01
sg14
I1464410458
sg15
S'WbqGU5TYFgy7fJ_UaI5Zceau'
p1160
sg17
I01
sg18
(dp1161
S'httponly'
p1162
Nssg20
I0
sg21
I00
sg22
I00
sg23
I00
sg24
I01
sg25
g933
sg26
Nsg27
Nsg28
I00
sbsg962
(icookielib
Cookie
p1163
(dp1164
g9
Nsg10
S'.facebook.com'
p1165
sg12
g962
sg13
I01
sg14
Nsg15
S'Aa6Lwe5bjnsGKBY6.BThrpa'
p1166
sg17
I01
sg18
(dp1167
S'httponly'
p1168
Nssg20
I0
sg21
I00
sg22
I00
sg23
I01
sg24
I01
sg25
g933
sg26
Nsg27
Nsg28
I01
sbsS'lu'
p1169
(icookielib
Cookie
p1170
(dp1171
g9
Nsg10
S'.facebook.com'
p1172
sg12
g1169
sg13
I01
sg14
I1464410458
sg15
S'QAcDQUP6qR4ncIEfIbVqJbKg'
p1173
sg17
I01
sg18
(dp1174
S'httponly'
p1175
Nssg20
I0
sg21
I00
sg22
I00
sg23
I00
sg24
I01
sg25
g933
sg26
Nsg27
Nsg28
I01
sbsS'xs'
p1176
(icookielib
Cookie
p1177
(dp1178
g9
Nsg10
S'.facebook.com'
p1179
sg12
g1176
sg13
I01
sg14
Nsg15
S'31%3At27s7M81m6guIw%3A2%3A1401338458%3A2332'
p1180
sg17
I01
sg18
(dp1181
S'httponly'
p1182
Nssg20
I0
sg21
I00
sg22
I00
sg23
I01
sg24
I01
sg25
g933
sg26
Nsg27
Nsg28
I01
sbsssa(dp1183
S'.facebook.com'
p1184
(dp1185
g933
(dp1186
S'csm'
p1187
(icookielib
Cookie
p1188
(dp1189
g9
Nsg10
S'.facebook.com'
p1190
sg12
g1187
sg13
I01
sg14
Nsg15
g939
sg17
I01
sg18
(dp1191
sg20
I0
sg21
I00
sg22
I00
sg23
I01
sg24
I01
sg25
g933
sg26
Nsg27
Nsg28
I00
sbsS'c_user'
p1192
(icookielib
Cookie
p1193
(dp1194
g9
Nsg10
S'.facebook.com'
p1195
sg12
g1192
sg13
I01
sg14
Nsg15
S'100004145116528'
p1196
sg17
I01
sg18
(dp1197
sg20
I0
sg21
I00
sg22
I00
sg23
I01
sg24
I01
sg25
g933
sg26
Nsg27
Nsg28
I01
sbsS'fr'
p1198
(icookielib
Cookie
p1199
(dp1200
g9
Nsg10
S'.facebook.com'
p1201
sg12
g1198
sg13
I01
sg14
I1403930460
sg15
S'0eHiu5cXZ2PKEQSTs.AWXffHq0phYeUm0EPxUTgrFKU6A.BThrpc.uc.AAA.AWU49z--'
p1202
sg17
I01
sg18
(dp1203
S'httponly'
p1204
Nssg20
I0
sg21
I00
sg22
I00
sg23
I00
sg24
I01
sg25
g933
sg26
Nsg27
Nsg28
I00
sbsS'datr'
p1205
(icookielib
Cookie
p1206
(dp1207
g9
Nsg10
S'.facebook.com'
p1208
sg12
S'datr'
p1209
sg13
I01
sg14
I1464410460
sg15
S'W7qGUwiXJCRh9H8Wcv-bblNC'
p1210
sg17
I01
sg18
(dp1211
S'httponly'
p1212
Nssg20
I0
sg21
I00
sg22
I00
sg23
I00
sg24
I01
sg25
g933
sg26
Nsg27
Nsg28
I00
sbsg962
(icookielib
Cookie
p1213
(dp1214
g9
Nsg10
S'.facebook.com'
p1215
sg12
g962
sg13
I01
sg14
Nsg15
S'Aa5dlGMcI75xiQkF.BThrpc'
p1216
sg17
I01
sg18
(dp1217
S'httponly'
p1218
Nssg20
I0
sg21
I00
sg22
I00
sg23
I01
sg24
I01
sg25
g933
sg26
Nsg27
Nsg28
I01
sbsS'lu'
p1219
(icookielib
Cookie
p1220
(dp1221
g9
Nsg10
S'.facebook.com'
p1222
sg12
g1219
sg13
I01
sg14
I1464410460
sg15
S'QAA5A1YJ9o8H9XI5-igTynew'
p1223
sg17
I01
sg18
(dp1224
S'httponly'
p1225
Nssg20
I0
sg21
I00
sg22
I00
sg23
I00
sg24
I01
sg25
g933
sg26
Nsg27
Nsg28
I01
sbsS'xs'
p1226
(icookielib
Cookie
p1227
(dp1228
g9
Nsg10
S'.facebook.com'
p1229
sg12
g1226
sg13
I01
sg14
Nsg15
S'161%3A1Bxca-KwjivH_Q%3A2%3A1401338460%3A6515'
p1230
sg17
I01
sg18
(dp1231
S'httponly'
p1232
Nssg20
I0
sg21
I00
sg22
I00
sg23
I01
sg24
I01
sg25
g933
sg26
Nsg27
Nsg28
I01
sbsssa(dp1233
S'.facebook.com'
p1234
(dp1235
g933
(dp1236
S'csm'
p1237
(icookielib
Cookie
p1238
(dp1239
g9
Nsg10
S'.facebook.com'
p1240
sg12
g1237
sg13
I01
sg14
Nsg15
g939
sg17
I01
sg18
(dp1241
sg20
I0
sg21
I00
sg22
I00
sg23
I01
sg24
I01
sg25
g933
sg26
Nsg27
Nsg28
I00
sbsS'c_user'
p1242
(icookielib
Cookie
p1243
(dp1244
g9
Nsg10
S'.facebook.com'
p1245
sg12
g1242
sg13
I01
sg14
Nsg15
S'100004997356534'
p1246
sg17
I01
sg18
(dp1247
sg20
I0
sg21
I00
sg22
I00
sg23
I01
sg24
I01
sg25
g933
sg26
Nsg27
Nsg28
I01
sbsS'fr'
p1248
(icookielib
Cookie
p1249
(dp1250
g9
Nsg10
S'.facebook.com'
p1251
sg12
g1248
sg13
I01
sg14
I1403930463
sg15
S'0b8lZMG4gJsmN5gbo.AWWY6D6lXL3SC24aQLie6g9JGF0.BThrpf.v5.AAA.AWVdxpOo'
p1252
sg17
I01
sg18
(dp1253
S'httponly'
p1254
Nssg20
I0
sg21
I00
sg22
I00
sg23
I00
sg24
I01
sg25
g933
sg26
Nsg27
Nsg28
I00
sbsS'datr'
p1255
(icookielib
Cookie
p1256
(dp1257
g9
Nsg10
S'.facebook.com'
p1258
sg12
S'datr'
p1259
sg13
I01
sg14
I1464410463
sg15
S'XbqGU3CQww5mifpm93joUWhr'
p1260
sg17
I01
sg18
(dp1261
S'httponly'
p1262
Nssg20
I0
sg21
I00
sg22
I00
sg23
I00
sg24
I01
sg25
g933
sg26
Nsg27
Nsg28
I00
sbsg962
(icookielib
Cookie
p1263
(dp1264
g9
Nsg10
S'.facebook.com'
p1265
sg12
g962
sg13
I01
sg14
Nsg15
S'Aa6D0Wb5byYHABoI.BThrpf'
p1266
sg17
I01
sg18
(dp1267
S'httponly'
p1268
Nssg20
I0
sg21
I00
sg22
I00
sg23
I01
sg24
I01
sg25
g933
sg26
Nsg27
Nsg28
I01
sbsS'lu'
p1269
(icookielib
Cookie
p1270
(dp1271
g9
Nsg10
S'.facebook.com'
p1272
sg12
g1269
sg13
I01
sg14
I1464410463
sg15
S'QAnnWXemoB2jRJUbt-MfQGcg'
p1273
sg17
I01
sg18
(dp1274
S'httponly'
p1275
Nssg20
I0
sg21
I00
sg22
I00
sg23
I00
sg24
I01
sg25
g933
sg26
Nsg27
Nsg28
I01
sbsS'xs'
p1276
(icookielib
Cookie
p1277
(dp1278
g9
Nsg10
S'.facebook.com'
p1279
sg12
g1276
sg13
I01
sg14
Nsg15
S'200%3Av9GKBJdhG8i9Jw%3A2%3A1401338463%3A8422'
p1280
sg17
I01
sg18
(dp1281
S'httponly'
p1282
Nssg20
I0
sg21
I00
sg22
I00
sg23
I01
sg24
I01
sg25
g933
sg26
Nsg27
Nsg28
I01
sbsssa.