(dp0
S'9074'
p1
I83
sS'562727359'
p2
I106
sS'501123858'
p3
I55
sS'555750710'
p4
I152
sI2537489
I190
sS'741009523'
p5
I398
sI732979223
I84
sI22601754
I264
sI500011038
I265
sS'500085339'
p6
I117
sI44
I266
sI5469
I434
sI202801
I327
sI51
I361
sS'500011067'
p7
I91
sI503599169
I58
sS'1041808722'
p8
I443
sS'211031'
p9
I69
sS'1031376821'
p10
I286
sI510050388
I453
sS'5469'
p11
I406
sI1228890
I199
sI16476
I407
sS'714038'
p12
I11
sS'8701668'
p13
I23
sS'800193'
p14
I537
sS'202693'
p15
I473
sS'622120230'
p16
I102
sS'4702676'
p17
I73
sS'641846396'
p18
I310
sS'500052581'
p19
I373
sS'100003977886356'
p20
I540
sS'531464788'
p21
I448
sI741009523
I403
sS'40310081'
p22
I217
sS'702819'
p23
I316
sS'501058033'
p24
I80
sS'220439'
p25
I25
sS'3700464'
p26
I87
sI2250889
I242
sS'205733'
p27
I26
sI1138911382
I318
sI19482
I455
sS'748825061'
p28
I260
sS'607018'
p29
I507
sI500836521
I319
sS'9418141'
p30
I60
sI203122
I188
sS'700650076'
p31
I281
sS'716942711'
p32
I454
sS'207088'
p33
I168
sI1239220
I48
sI500195510
I399
sI1110201
I343
sI2236
I405
sI211133
I213
sS'2767'
p34
I492
sI35021
I465
sS'2514'
p35
I518
sS'728966219'
p36
I349
sS'15704357'
p37
I412
sS'8093'
p38
I134
sS'503938184'
p39
I113
sS'1503751'
p40
I512
sI221418
I329
sS'700963'
p41
I181
sI1184436462
I344
sS'34'
p42
I15
sS'580166821'
p43
I103
sS'32703572'
p44
I451
sI578230518
I218
sS'1105730'
p45
I228
sS'505072358'
p46
I311
sI500013310
I469
sS'680980292'
p47
I300
sI122614020
I33
sS'204060'
p48
I235
sS'504568583'
p49
I499
sS'100001337147974'
p50
I444
sS'1060'
p51
I528
sS'201488'
p52
I29
sS'836701'
p53
I31
sS'202965'
p54
I401
sS'203866'
p55
I37
sS'517294852'
p56
I202
sS'500012663'
p57
I483
sS'1032644396'
p58
I295
sS'1340940008'
p59
I39
sI1214515
I525
sS'207830'
p60
I283
sS'566111360'
p61
I212
sS'211133'
p62
I419
sS'1014953'
p63
I123
sI2375
I387
sS'19621'
p64
I409
sI209229
I375
sS'800983'
p65
I13
sS'610647866'
p66
I19
sI215394
I340
sI505072358
I71
sS'763080228'
p67
I238
sS'6750'
p68
I284
sS'406068'
p69
I159
sS'637584533'
p70
I76
sI625146231
I147
sI4813177
I149
sS'37000641'
p71
I162
sS'208077'
p72
I461
sS'29888'
p73
I351
sS'803834'
p74
I259
sS'433321'
p75
I370
sI664195469
I107
sS'500367690'
p76
I293
sS'852405200'
p77
I85
sS'621657040'
p78
I290
sS'732979223'
p79
I204
sI14100920
I336
sS'4600499'
p80
I184
sS'100056'
p81
I502
sI562727359
I277
sL100001485045454L
I122
sS'700240'
p82
I95
sS'202135'
p83
I130
sI4702676
I250
sI217560
I270
sS'501486051'
p84
I422
sI579189212
I496
sI1001952
I183
sS'501181107'
p85
I150
sS'205341'
p86
I487
sS'213861'
p87
I400
sI681560561
I347
sS'1200397'
p88
I279
sI517691898
I233
sS'2901279'
p89
I158
sS'2400299'
p90
I531
sS'728642302'
p91
I165
sS'503599169'
p92
I371
sI500048405
I110
sS'501219'
p93
I510
sI517294852
I24
sS'1414264'
p94
I312
sI205341
I379
sI543
I380
sS'219370'
p95
I35
sS'5629'
p96
I504
sS'500093097'
p97
I441
sS'508507781'
p98
I88
sS'4807591'
p99
I396
sS'560882380'
p100
I206
sI679930430
I56
sS'4801660'
p101
I352
sS'1214515'
p102
I519
sS'211867'
p103
I227
sI207440
I267
sI531464788
I410
sI500093097
I427
sS'1700751'
p104
I442
sI500085339
I313
sI700650076
I136
sS'808160108'
p105
I182
sS'5300097'
p106
I67
sS'1228890'
p107
I100
sS'762975524'
p108
I14
sI203366
I418
sS'1036350030'
p109
I163
sS'206785'
p110
I75
sS'500185165'
p111
I142
sS'530929372'
p112
I305
sS'214707'
p113
I57
sI636748905
I314
sS'224531'
p114
I299
sI868440706
I220
sI647285381
I323
sS'1138911382'
p115
I93
sS'571756321'
p116
I197
sS'703'
p117
I65
sS'500012058'
p118
I450
sS'3109559'
p119
I112
sS'1256035600'
p120
I208
sS'19482'
p121
I468
sS'614717407'
p122
I86
sS'1714'
p123
I390
sS'587757757'
p124
I462
sS'510050388'
p125
I471
sS'688626964'
p126
I174
sS'36905751'
p127
I46
sI501181107
I374
sS'22501381'
p128
I535
sI12981
I466
sS'5840'
p129
I62
sS'504932'
p130
I513
sI703
I246
sI531464902
I439
sS'516054195'
p131
I17
sI223950
I249
sI2767
I388
sS'24568'
p132
I391
sS'2607933'
p133
I389
sI703541982
I137
sS'514699839'
p134
I53
sS'508540433'
p135
I251
sS'647696511'
p136
I231
sI500015846
I138
sS'223020'
p137
I22
sI4842
I141
sI587494127
I364
sS'100005'
p138
I520
sS'2528063'
p139
I359
sI4850
I144
sI10732279
I426
sS'7500087'
p140
I530
sS'2375'
p141
I493
sS'14100920'
p142
I7
sI203523
I167
sS'216847'
p143
I132
sI504568583
I378
sS'637380048'
p144
I221
sI223020
I172
sS'13875'
p145
I489
sI723366678
I476
sS'1063950108'
p146
I497
sS'1038202191'
p147
I114
sS'500048405'
p148
I438
sS'500195510'
p149
I484
sS'3690'
p150
I505
sI512811
I119
sS'4602741'
p151
I170
sS'512811'
p152
I89
sS'189'
p153
I524
sI563010364
I365
sI2607933
I331
sS'763655334'
p154
I125
sI715072330
I428
sS'211805'
p155
I308
sI28119889
I128
sS'500729356'
p156
I97
sI501486051
I346
sS'562210479'
p157
I198
sS'8627805'
p158
I105
sI808160108
I429
sS'531464902'
p159
I481
sI4602741
I254
sS'510366735'
p160
I384
sS'203523'
p161
I420
sS'2244581'
p162
I82
sS'4802170'
p163
I180
sI1700751
I430
sS'2537489'
p164
I201
sS'1304370418'
p165
I160
sI718959508
I275
sS'3500401'
p166
I153
sI211867
I207
sL100001337147974L
I464
sS'507266468'
p167
I32
sS'202786'
p168
I335
sS'528057051'
p169
I257
sS'508777953'
p170
I541
sI673387455
I337
sS'500036'
p171
I509
sS'202603'
p172
I59
sS'1103324'
p173
I515
sI27592
I425
sS'208'
p174
I490
sS'507994586'
p175
I309
sI621657040
I338
sS'48300780'
p176
I63
sI507663317
I215
sS'712692668'
p177
I64
sS'2250889'
p178
I449
sI14900184
I133
sS'679930430'
p179
I297
sS'8802064'
p180
I508
sS'14900184'
p181
I232
sS'609550'
p182
I526
sS'703541982'
p183
I298
sS'2236'
p184
I301
sS'1681'
p185
I124
sI680399858
I120
sS'5705224'
p186
I5
sS'1184436462'
p187
I367
sI1014953
I210
sI803834
I431
sS'670335864'
p188
I79
sI563426310
I372
sI1075581966
I263
sS'215394'
p189
I423
sS'4300835'
p190
I411
sI500012058
I244
sS'729799691'
p191
I209
sS'543'
p192
I491
sI511497
I397
sS'625146231'
p193
I104
sS'4813177'
p194
I445
sS'1202422'
p195
I485
sI32703572
I362
sS'641410402'
p196
I304
sI203866
I135
sS'12981'
p197
I527
sL100002469556591L
I363
sS'sadikhan'
p198
I2
sS'1239220'
p199
I18
sS'1082088929'
p200
I164
sI189
I383
sI207996
I234
sS'1086840001'
p201
I12
sS'28500111'
p202
I534
sS'3410'
p203
I529
sS'611132719'
p204
I131
sI637584533
I341
sS'1700599'
p205
I40
sI433321
I193
sS'9372866'
p206
I245
sS'1586010043'
p207
I166
sS'4708962'
p208
I348
sS'100002165336609'
p209
I282
sS'28119889'
p210
I155
sI516054195
I47
sS'221418'
p211
I474
sS'100002338801395'
p212
I8
sS'778947602'
p213
I382
sI29888
I467
sI1086840001
I247
sS'203366'
p214
I353
sI208077
I214
sS'197'
p215
I539
sS'691534599'
p216
I447
sS'219074'
p217
I98
sS'11898'
p218
I292
sS'22601754'
p219
I243
sS'304760'
p220
I262
sS'201418'
p221
I339
sS'30003184'
p222
I402
sS'2900336'
p223
I177
sS'298900048'
p224
I189
sS'3465'
p225
I460
sS'623404304'
p226
I358
sS'16157'
p227
I239
sS'28'
p228
I488
sS'2291'
p229
I494
sS'201896'
p230
I237
sS'630266137'
p231
I289
sI1256035600
I321
sI688626964
I30
sS'500051478'
p232
I458
sI204060
I322
sS'209229'
p233
I171
sS'502085998'
p234
I440
sS'505421674'
p235
I20
sI622120230
I38
sI701922603
I320
sS'624060'
p236
I44
sS'543486022'
p237
I45
sI714038
I273
sS'739'
p238
I506
sS'zuck'
p239
I0
sS'1217842'
p240
I156
sS'29397'
p241
I121
sS'10719934'
p242
I54
sI40310081
I332
sS'680399858'
p243
I437
sS'600233'
p244
I503
sI1041808722
I129
sS'511497'
p245
I457
sS'3501563'
p246
I255
sS'202012'
p247
I223
sS'500014674'
p248
I261
sS'3100026'
p249
I523
sS'1000550'
p250
I66
sS'206186'
p251
I99
sS'664195469'
p252
I157
sS'100001485045454'
p253
I21
sS'500636396'
p254
I28
sS'767560056'
p255
I16
sI207088
I253
sS'750759912'
p256
I291
sS'210081'
p257
I463
sS'10708607'
p258
I288
sS'673387455'
p259
I324
sS'208576'
p260
I1
sS'3534'
p261
I517
sS'715072330'
p262
I111
sI714450330
I333
sS'579091105'
p263
I256
sS'207996'
p264
I294
sI507266468
I334
sS'507663317'
p265
I222
sS'578230518'
p266
I350
sI202157
I173
sS'506595415'
p267
I205
sS'529272565'
p268
I90
sS'2030'
p269
I94
sS'207440'
p270
I236
sS'4842'
p271
I296
sS'1500024'
p272
I516
sS'718959508'
p273
I225
sS'203247'
p274
I3
sI1202422
I394
sS'664024724'
p275
I196
sI3534
I477
sS'2207936'
p276
I500
sS'216760'
p277
I369
sS'1110201'
p278
I408
sS'6735'
p279
I395
sS'203122'
p280
I472
sI1082088929
I200
sS'7302594'
p281
I185
sS'310700023'
p282
I532
sS'5092'
p283
I478
sS'213466'
p284
I78
sI5629
I475
sS'10732279'
p285
I486
sI583425539
I240
sS'42'
p286
I42
sS'785840643'
p287
I145
sS'603416457'
p288
I435
sS'8700904'
p289
I34
sI314913
I115
sS'220257'
p290
I36
sS'1305210'
p291
I192
sS'2402937'
p292
I522
sI1926698
I224
sS'7051'
p293
I81
sS'202726'
p294
I49
sS'201449'
p295
I175
sS'202728'
p296
I416
sS'223950'
p297
I143
sS'1400605'
p298
I241
sS'507465671'
p299
I195
sS'1092'
p300
I386
sS'505479284'
p301
I6
sS'628643502'
p302
I287
sS'583425539'
p303
I230
sI8627805
I268
sI623404304
I109
sI3690
I392
sS'759590575'
p304
I413
sS'51'
p305
I356
sS'563426310'
p306
I315
sI304760
I148
sS'2194'
p307
I417
sS'500010222'
p308
I4
sI10708607
I151
sS'579189212'
p309
I482
sI508507781
I317
sS'204620'
p310
I414
sS'587494127'
p311
I421
sS'1001952'
p312
I452
sS'681560561'
p313
I456
sS'1208381'
p314
I108
sI664024724
I328
sS'8136'
p315
I521
sS'8903343'
p316
I154
sS'2400942'
p317
I533
sI100005
I424
sS'558259929'
p318
I326
sI628643502
I342
sI759590575
I194
sS'6205900'
p319
I258
sS'2101355'
p320
I92
sS'217560'
p321
I10
sS'300001'
p322
I501
sI19401714
I377
sS'314913'
p323
I226
sI3501774
I126
sS'1926698'
p324
I355
sS'19401714'
p325
I229
sI530929372
I118
sS'10033'
p326
I514
sI852405200
I127
sS'2416439'
p327
I179
sS'500011038'
p328
I101
sI8701668
I70
sS'1206314'
p329
I306
sS'1075581966'
p330
I116
sS'16829165'
p331
I146
sS'122601530'
p332
I161
sS'507306395'
p333
I360
sS'27592'
p334
I495
sS'714450330'
p335
I9
sS'868440706'
p336
I357
sS'647285381'
p337
I436
sS'662364605'
p338
I271
sI16157
I272
sS'24400320'
p339
I68
sI571756321
I432
sI721125164
I330
sS'815824'
p340
I536
sS'1111968'
p341
I285
sI2416439
I50
sS'672745547'
p342
I303
sI610647866
I52
sS'202801'
p343
I176
sI1105730
I345
sS'202157'
p344
I415
sI555750710
I274
sS'100003593377441'
p345
I325
sS'1319289'
p346
I61
sI204620
I178
sS'29395'
p347
I51
sS'631115625'
p348
I446
sS'515551105'
p349
I139
sI631115625
I140
sI505421674
I187
sS'12001287'
p350
I538
sI750759912
I72
sS'1160'
p351
I77
sS'3501774'
p352
I302
sS'204686'
p353
I169
sS'122614020'
p354
I96
sS'500836521'
p355
I459
sS'506749663'
p356
I191
sS'4801917'
p357
I41
sS'44'
p358
I381
sS'100002526091955'
p359
I203
sS'701922603'
p360
I27
sS'40'
p361
I479
sS'7901103'
p362
I43
sS'517691898'
p363
I433
sS'5'
p364
I276
sI1031376821
I211
sI202685
I393
sS'3400050'
p365
I385
sI206785
I278
sI507465671
I248
sS'500017113'
p366
I354
sI310700023
I366
sS'2551'
p367
I404
sS'100000155763568'
p368
I470
sI500017113
I216
sS'1315349'
p369
I219
sI202728
I186
sS'636748905'
p370
I498
sI201449
I269
sS'721125164'
p371
I480
sI2030
I74
sI30003184
I376
sS'602735'
p372
I511
sS'500014237'
p373
I280
sS'500015846'
p374
I307
sS'573126587'
p375
I252
sS'4850'
p376
I368
s.